	.file	"coordinator.cpp"
	.text
.Ltext0:
	.section	.text._ZnwmPv,"axG",@progbits,_ZnwmPv,comdat
	.weak	_ZnwmPv
	.type	_ZnwmPv, @function
_ZnwmPv:
.LFB37:
	.file 1 "/usr/include/c++/10/new"
	.loc 1 175 1
	.cfi_startproc
	pushq	%rbp
	.cfi_def_cfa_offset 16
	.cfi_offset 6, -16
	movq	%rsp, %rbp
	.cfi_def_cfa_register 6
	movq	%rdi, -8(%rbp)
	movq	%rsi, -16(%rbp)
	.loc 1 175 10
	movq	-16(%rbp), %rax
	.loc 1 175 15
	popq	%rbp
	.cfi_def_cfa 7, 8
	ret
	.cfi_endproc
.LFE37:
	.size	_ZnwmPv, .-_ZnwmPv
	.section	.text._ZdlPvS_,"axG",@progbits,_ZdlPvS_,comdat
	.weak	_ZdlPvS_
	.type	_ZdlPvS_, @function
_ZdlPvS_:
.LFB39:
	.loc 1 180 67
	.cfi_startproc
	pushq	%rbp
	.cfi_def_cfa_offset 16
	.cfi_offset 6, -16
	movq	%rsp, %rbp
	.cfi_def_cfa_register 6
	movq	%rdi, -8(%rbp)
	movq	%rsi, -16(%rbp)
	.loc 1 180 69
	nop
	popq	%rbp
	.cfi_def_cfa 7, 8
	ret
	.cfi_endproc
.LFE39:
	.size	_ZdlPvS_, .-_ZdlPvS_
	.section	.text._ZSt21is_constant_evaluatedv,"axG",@progbits,_ZSt21is_constant_evaluatedv,comdat
	.weak	_ZSt21is_constant_evaluatedv
	.type	_ZSt21is_constant_evaluatedv, @function
_ZSt21is_constant_evaluatedv:
.LFB64:
	.file 2 "/usr/include/c++/10/type_traits"
	.loc 2 3292 3
	.cfi_startproc
	pushq	%rbp
	.cfi_def_cfa_offset 16
	.cfi_offset 6, -16
	movq	%rsp, %rbp
	.cfi_def_cfa_register 6
	.loc 2 3292 44
	movl	$0, %eax
	.loc 2 3292 47
	popq	%rbp
	.cfi_def_cfa 7, 8
	ret
	.cfi_endproc
.LFE64:
	.size	_ZSt21is_constant_evaluatedv, .-_ZSt21is_constant_evaluatedv
	.weak	_ZSt19piecewise_construct
	.section	.rodata._ZSt19piecewise_construct,"aG",@progbits,_ZSt19piecewise_construct,comdat
	.type	_ZSt19piecewise_construct, @gnu_unique_object
	.size	_ZSt19piecewise_construct, 1
_ZSt19piecewise_construct:
	.zero	1
	.section	.text._ZNSt11char_traitsIcE6assignERcRKc,"axG",@progbits,_ZNSt11char_traitsIcE6assignERcRKc,comdat
	.weak	_ZNSt11char_traitsIcE6assignERcRKc
	.type	_ZNSt11char_traitsIcE6assignERcRKc, @function
_ZNSt11char_traitsIcE6assignERcRKc:
.LFB563:
	.file 3 "/usr/include/c++/10/bits/char_traits.h"
	.loc 3 328 7
	.cfi_startproc
	pushq	%rbp
	.cfi_def_cfa_offset 16
	.cfi_offset 6, -16
	movq	%rsp, %rbp
	.cfi_def_cfa_register 6
	movq	%rdi, -8(%rbp)
	movq	%rsi, -16(%rbp)
	.loc 3 329 16
	movq	-16(%rbp), %rax
	movzbl	(%rax), %edx
	.loc 3 329 14
	movq	-8(%rbp), %rax
	movb	%dl, (%rax)
	.loc 3 329 22
	nop
	popq	%rbp
	.cfi_def_cfa 7, 8
	ret
	.cfi_endproc
.LFE563:
	.size	_ZNSt11char_traitsIcE6assignERcRKc, .-_ZNSt11char_traitsIcE6assignERcRKc
	.section	.text._ZNSt11char_traitsIcE7compareEPKcS2_m,"axG",@progbits,_ZNSt11char_traitsIcE7compareEPKcS2_m,comdat
	.weak	_ZNSt11char_traitsIcE7compareEPKcS2_m
	.type	_ZNSt11char_traitsIcE7compareEPKcS2_m, @function
_ZNSt11char_traitsIcE7compareEPKcS2_m:
.LFB566:
	.loc 3 344 7
	.cfi_startproc
	pushq	%rbp
	.cfi_def_cfa_offset 16
	.cfi_offset 6, -16
	movq	%rsp, %rbp
	.cfi_def_cfa_register 6
	subq	$32, %rsp
	movq	%rdi, -8(%rbp)
	movq	%rsi, -16(%rbp)
	movq	%rdx, -24(%rbp)
	.loc 3 346 2
	cmpq	$0, -24(%rbp)
	jne	.L8
	.loc 3 347 11
	movl	$0, %eax
	jmp	.L9
.L8:
	.loc 3 351 6 discriminator 1
	movl	$0, %eax
	.loc 3 349 2 discriminator 1
	testb	%al, %al
	je	.L10
	.loc 3 352 53
	movq	-24(%rbp), %rdx
	movq	-16(%rbp), %rcx
	movq	-8(%rbp), %rax
	movq	%rcx, %rsi
	movq	%rax, %rdi
	call	_ZN9__gnu_cxx11char_traitsIcE7compareEPKcS3_m
	.loc 3 352 69
	jmp	.L9
.L10:
	.loc 3 354 25
	movq	-24(%rbp), %rdx
	movq	-16(%rbp), %rcx
	movq	-8(%rbp), %rax
	movq	%rcx, %rsi
	movq	%rax, %rdi
	call	memcmp@PLT
	.loc 3 354 41
	nop
.L9:
	.loc 3 355 7
	leave
	.cfi_def_cfa 7, 8
	ret
	.cfi_endproc
.LFE566:
	.size	_ZNSt11char_traitsIcE7compareEPKcS2_m, .-_ZNSt11char_traitsIcE7compareEPKcS2_m
	.section	.text._ZNSt11char_traitsIcE6lengthEPKc,"axG",@progbits,_ZNSt11char_traitsIcE6lengthEPKc,comdat
	.weak	_ZNSt11char_traitsIcE6lengthEPKc
	.type	_ZNSt11char_traitsIcE6lengthEPKc, @function
_ZNSt11char_traitsIcE6lengthEPKc:
.LFB568:
	.loc 3 358 7
	.cfi_startproc
	pushq	%rbp
	.cfi_def_cfa_offset 16
	.cfi_offset 6, -16
	movq	%rsp, %rbp
	.cfi_def_cfa_register 6
	subq	$32, %rsp
	movq	%rdi, -24(%rbp)
	movq	-24(%rbp), %rax
	movq	%rax, -8(%rbp)
.LBB36:
.LBB37:
	.loc 3 262 46
	movl	$0, %eax
.LBE37:
.LBE36:
	.loc 3 361 2
	testb	%al, %al
	je	.L13
	.loc 3 362 52
	movq	-24(%rbp), %rax
	movq	%rax, %rdi
	call	_ZN9__gnu_cxx11char_traitsIcE6lengthEPKc
	.loc 3 362 56
	jmp	.L14
.L13:
	.loc 3 364 25
	movq	-24(%rbp), %rax
	movq	%rax, %rdi
	call	strlen@PLT
	.loc 3 364 29
	nop
.L14:
	.loc 3 365 7
	leave
	.cfi_def_cfa 7, 8
	ret
	.cfi_endproc
.LFE568:
	.size	_ZNSt11char_traitsIcE6lengthEPKc, .-_ZNSt11char_traitsIcE6lengthEPKc
	.section	.text._ZNSt11char_traitsIcE4copyEPcPKcm,"axG",@progbits,_ZNSt11char_traitsIcE4copyEPcPKcm,comdat
	.weak	_ZNSt11char_traitsIcE4copyEPcPKcm
	.type	_ZNSt11char_traitsIcE4copyEPcPKcm, @function
_ZNSt11char_traitsIcE4copyEPcPKcm:
.LFB572:
	.loc 3 394 7
	.cfi_startproc
	pushq	%rbp
	.cfi_def_cfa_offset 16
	.cfi_offset 6, -16
	movq	%rsp, %rbp
	.cfi_def_cfa_register 6
	subq	$32, %rsp
	movq	%rdi, -8(%rbp)
	movq	%rsi, -16(%rbp)
	movq	%rdx, -24(%rbp)
	.loc 3 396 2
	cmpq	$0, -24(%rbp)
	jne	.L16
	.loc 3 397 11
	movq	-8(%rbp), %rax
	jmp	.L17
.L16:
	.loc 3 399 32
	call	_ZSt21is_constant_evaluatedv
	.loc 3 399 2
	testb	%al, %al
	je	.L18
	.loc 3 400 50
	movq	-24(%rbp), %rdx
	movq	-16(%rbp), %rcx
	movq	-8(%rbp), %rax
	movq	%rcx, %rsi
	movq	%rax, %rdi
	call	_ZN9__gnu_cxx11char_traitsIcE4copyEPcPKcm
	.loc 3 400 66
	jmp	.L17
.L18:
	.loc 3 402 49
	movq	-8(%rbp), %rdx
	movq	-16(%rbp), %rax
	movq	%rdx, %rcx
	movq	%rax, %rsi
	movq	-24(%rbp), %rax
	movq	%rax, %rdx
	movq	%rcx, %rdi
	call	memcpy@PLT
	.loc 3 402 66
	nop
.L17:
	.loc 3 403 7
	leave
	.cfi_def_cfa 7, 8
	ret
	.cfi_endproc
.LFE572:
	.size	_ZNSt11char_traitsIcE4copyEPcPKcm, .-_ZNSt11char_traitsIcE4copyEPcPKcm
	.section	.text._ZNKSt4hashIiEclEi,"axG",@progbits,_ZNKSt4hashIiEclEi,comdat
	.align 2
	.weak	_ZNKSt4hashIiEclEi
	.type	_ZNKSt4hashIiEclEi, @function
_ZNKSt4hashIiEclEi:
.LFB1408:
	.file 4 "/usr/include/c++/10/bits/functional_hash.h"
	.loc 4 153 3
	.cfi_startproc
	pushq	%rbp
	.cfi_def_cfa_offset 16
	.cfi_offset 6, -16
	movq	%rsp, %rbp
	.cfi_def_cfa_register 6
	movq	%rdi, -8(%rbp)
	movl	%esi, -12(%rbp)
	.loc 4 153 3
	movl	-12(%rbp), %eax
	cltq
	popq	%rbp
	.cfi_def_cfa 7, 8
	ret
	.cfi_endproc
.LFE1408:
	.size	_ZNKSt4hashIiEclEi, .-_ZNKSt4hashIiEclEi
	.section	.text._ZNSt10_Hash_impl4hashEPKvmm,"axG",@progbits,_ZNSt10_Hash_impl4hashEPKvmm,comdat
	.weak	_ZNSt10_Hash_impl4hashEPKvmm
	.type	_ZNSt10_Hash_impl4hashEPKvmm, @function
_ZNSt10_Hash_impl4hashEPKvmm:
.LFB1415:
	.loc 4 195 5
	.cfi_startproc
	pushq	%rbp
	.cfi_def_cfa_offset 16
	.cfi_offset 6, -16
	movq	%rsp, %rbp
	.cfi_def_cfa_register 6
	subq	$32, %rsp
	movq	%rdi, -8(%rbp)
	movq	%rsi, -16(%rbp)
	movq	%rdx, -24(%rbp)
	.loc 4 197 25
	movq	-24(%rbp), %rdx
	movq	-16(%rbp), %rcx
	movq	-8(%rbp), %rax
	movq	%rcx, %rsi
	movq	%rax, %rdi
	call	_ZSt11_Hash_bytesPKvmm@PLT
	.loc 4 197 53
	leave
	.cfi_def_cfa 7, 8
	ret
	.cfi_endproc
.LFE1415:
	.size	_ZNSt10_Hash_impl4hashEPKvmm, .-_ZNSt10_Hash_impl4hashEPKvmm
	.section	.rodata
.LC0:
	.string	"stoi"
	.section	.text._ZNSt7__cxx114stoiERKNS_12basic_stringIcSt11char_traitsIcESaIcEEEPmi,"axG",@progbits,_ZNSt7__cxx114stoiERKNS_12basic_stringIcSt11char_traitsIcESaIcEEEPmi,comdat
	.weak	_ZNSt7__cxx114stoiERKNS_12basic_stringIcSt11char_traitsIcESaIcEEEPmi
	.type	_ZNSt7__cxx114stoiERKNS_12basic_stringIcSt11char_traitsIcESaIcEEEPmi, @function
_ZNSt7__cxx114stoiERKNS_12basic_stringIcSt11char_traitsIcESaIcEEEPmi:
.LFB1743:
	.file 5 "/usr/include/c++/10/bits/basic_string.h"
	.loc 5 6557 3
	.cfi_startproc
	pushq	%rbp
	.cfi_def_cfa_offset 16
	.cfi_offset 6, -16
	movq	%rsp, %rbp
	.cfi_def_cfa_register 6
	subq	$32, %rsp
	movq	%rdi, -8(%rbp)
	movq	%rsi, -16(%rbp)
	movl	%edx, -20(%rbp)
	.loc 5 6557 40
	movq	-8(%rbp), %rax
	movq	%rax, %rdi
	call	_ZNKSt7__cxx1112basic_stringIcSt11char_traitsIcESaIcEE5c_strEv
	movq	%rax, %rdx
	movl	-20(%rbp), %ecx
	movq	-16(%rbp), %rax
	movl	%ecx, %r8d
	movq	%rax, %rcx
	leaq	.LC0(%rip), %rsi
	movq	strtol@GOTPCREL(%rip), %rax
	movq	%rax, %rdi
	call	_ZN9__gnu_cxx6__stoaIlicJiEEET0_PFT_PKT1_PPS3_DpT2_EPKcS5_PmS9_
	.loc 5 6558 22
	leave
	.cfi_def_cfa 7, 8
	ret
	.cfi_endproc
.LFE1743:
	.size	_ZNSt7__cxx114stoiERKNS_12basic_stringIcSt11char_traitsIcESaIcEEEPmi, .-_ZNSt7__cxx114stoiERKNS_12basic_stringIcSt11char_traitsIcESaIcEEEPmi
	.section	.text._ZNKSt4hashINSt7__cxx1112basic_stringIcSt11char_traitsIcESaIcEEEEclERKS5_,"axG",@progbits,_ZNKSt4hashINSt7__cxx1112basic_stringIcSt11char_traitsIcESaIcEEEEclERKS5_,comdat
	.align 2
	.weak	_ZNKSt4hashINSt7__cxx1112basic_stringIcSt11char_traitsIcESaIcEEEEclERKS5_
	.type	_ZNKSt4hashINSt7__cxx1112basic_stringIcSt11char_traitsIcESaIcEEEEclERKS5_, @function
_ZNKSt4hashINSt7__cxx1112basic_stringIcSt11char_traitsIcESaIcEEEEclERKS5_:
.LFB1780:
	.loc 5 6812 7
	.cfi_startproc
	.cfi_personality 0x9b,DW.ref.__gxx_personality_v0
	.cfi_lsda 0x1b,.LLSDA1780
	pushq	%rbp
	.cfi_def_cfa_offset 16
	.cfi_offset 6, -16
	movq	%rsp, %rbp
	.cfi_def_cfa_register 6
	pushq	%rbx
	subq	$24, %rsp
	.cfi_offset 3, -24
	movq	%rdi, -24(%rbp)
	movq	%rsi, -32(%rbp)
	.loc 5 6813 37
	movq	-32(%rbp), %rax
	movq	%rax, %rdi
	call	_ZNKSt7__cxx1112basic_stringIcSt11char_traitsIcESaIcEE6lengthEv
	movq	%rax, %rbx
	.loc 5 6813 46
	movq	-32(%rbp), %rax
	movq	%rax, %rdi
	call	_ZNKSt7__cxx1112basic_stringIcSt11char_traitsIcESaIcEE4dataEv
	.loc 5 6813 37
	movl	$3339675911, %edx
	movq	%rbx, %rsi
	movq	%rax, %rdi
	call	_ZNSt10_Hash_impl4hashEPKvmm
	.loc 5 6813 65
	movq	-8(%rbp), %rbx
	leave
	.cfi_def_cfa 7, 8
	ret
	.cfi_endproc
.LFE1780:
	.globl	__gxx_personality_v0
	.section	.gcc_except_table._ZNKSt4hashINSt7__cxx1112basic_stringIcSt11char_traitsIcESaIcEEEEclERKS5_,"aG",@progbits,_ZNKSt4hashINSt7__cxx1112basic_stringIcSt11char_traitsIcESaIcEEEEclERKS5_,comdat
.LLSDA1780:
	.byte	0xff
	.byte	0xff
	.byte	0x1
	.uleb128 .LLSDACSE1780-.LLSDACSB1780
.LLSDACSB1780:
.LLSDACSE1780:
	.section	.text._ZNKSt4hashINSt7__cxx1112basic_stringIcSt11char_traitsIcESaIcEEEEclERKS5_,"axG",@progbits,_ZNKSt4hashINSt7__cxx1112basic_stringIcSt11char_traitsIcESaIcEEEEclERKS5_,comdat
	.size	_ZNKSt4hashINSt7__cxx1112basic_stringIcSt11char_traitsIcESaIcEEEEclERKS5_, .-_ZNKSt4hashINSt7__cxx1112basic_stringIcSt11char_traitsIcESaIcEEEEclERKS5_
	.local	_ZStL8__ioinit
	.comm	_ZStL8__ioinit,1,1
	.section	.text._ZNSt8__detail15_Hash_node_baseC2Ev,"axG",@progbits,_ZNSt8__detail15_Hash_node_baseC5Ev,comdat
	.align 2
	.weak	_ZNSt8__detail15_Hash_node_baseC2Ev
	.type	_ZNSt8__detail15_Hash_node_baseC2Ev, @function
_ZNSt8__detail15_Hash_node_baseC2Ev:
.LFB2627:
	.file 6 "/usr/include/c++/10/bits/hashtable_policy.h"
	.loc 6 218 5
	.cfi_startproc
	pushq	%rbp
	.cfi_def_cfa_offset 16
	.cfi_offset 6, -16
	movq	%rsp, %rbp
	.cfi_def_cfa_register 6
	movq	%rdi, -8(%rbp)
.LBB38:
	.loc 6 218 41
	movq	-8(%rbp), %rax
	movq	$0, (%rax)
.LBE38:
	.loc 6 218 45
	nop
	popq	%rbp
	.cfi_def_cfa 7, 8
	ret
	.cfi_endproc
.LFE2627:
	.size	_ZNSt8__detail15_Hash_node_baseC2Ev, .-_ZNSt8__detail15_Hash_node_baseC2Ev
	.weak	_ZNSt8__detail15_Hash_node_baseC1Ev
	.set	_ZNSt8__detail15_Hash_node_baseC1Ev,_ZNSt8__detail15_Hash_node_baseC2Ev
	.section	.text._ZNKSt8__detail18_Mod_range_hashingclEmm,"axG",@progbits,_ZNKSt8__detail18_Mod_range_hashingclEmm,comdat
	.align 2
	.weak	_ZNKSt8__detail18_Mod_range_hashingclEmm
	.type	_ZNKSt8__detail18_Mod_range_hashingclEmm, @function
_ZNKSt8__detail18_Mod_range_hashingclEmm:
.LFB2655:
	.loc 6 431 5
	.cfi_startproc
	pushq	%rbp
	.cfi_def_cfa_offset 16
	.cfi_offset 6, -16
	movq	%rsp, %rbp
	.cfi_def_cfa_register 6
	movq	%rdi, -8(%rbp)
	movq	%rsi, -16(%rbp)
	movq	%rdx, -24(%rbp)
	.loc 6 433 22
	movq	-16(%rbp), %rax
	movl	$0, %edx
	divq	-24(%rbp)
	movq	%rdx, %rax
	.loc 6 433 29
	popq	%rbp
	.cfi_def_cfa 7, 8
	ret
	.cfi_endproc
.LFE2655:
	.size	_ZNKSt8__detail18_Mod_range_hashingclEmm, .-_ZNKSt8__detail18_Mod_range_hashingclEmm
	.section	.text._ZNSt8__detail20_Prime_rehash_policyC2Ef,"axG",@progbits,_ZNSt8__detail20_Prime_rehash_policyC5Ef,comdat
	.align 2
	.weak	_ZNSt8__detail20_Prime_rehash_policyC2Ef
	.type	_ZNSt8__detail20_Prime_rehash_policyC2Ef, @function
_ZNSt8__detail20_Prime_rehash_policyC2Ef:
.LFB2657:
	.loc 6 449 5
	.cfi_startproc
	pushq	%rbp
	.cfi_def_cfa_offset 16
	.cfi_offset 6, -16
	movq	%rsp, %rbp
	.cfi_def_cfa_register 6
	movq	%rdi, -8(%rbp)
	movss	%xmm0, -12(%rbp)
.LBB39:
	.loc 6 450 48
	movq	-8(%rbp), %rax
	movss	-12(%rbp), %xmm0
	movss	%xmm0, (%rax)
	movq	-8(%rbp), %rax
	movq	$0, 8(%rax)
.LBE39:
	.loc 6 450 52
	nop
	popq	%rbp
	.cfi_def_cfa 7, 8
	ret
	.cfi_endproc
.LFE2657:
	.size	_ZNSt8__detail20_Prime_rehash_policyC2Ef, .-_ZNSt8__detail20_Prime_rehash_policyC2Ef
	.weak	_ZNSt8__detail20_Prime_rehash_policyC1Ef
	.set	_ZNSt8__detail20_Prime_rehash_policyC1Ef,_ZNSt8__detail20_Prime_rehash_policyC2Ef
	.section	.text._ZNKSt8__detail20_Prime_rehash_policy19_M_bkt_for_elementsEm,"axG",@progbits,_ZNKSt8__detail20_Prime_rehash_policy19_M_bkt_for_elementsEm,comdat
	.align 2
	.weak	_ZNKSt8__detail20_Prime_rehash_policy19_M_bkt_for_elementsEm
	.type	_ZNKSt8__detail20_Prime_rehash_policy19_M_bkt_for_elementsEm, @function
_ZNKSt8__detail20_Prime_rehash_policy19_M_bkt_for_elementsEm:
.LFB2660:
	.loc 6 462 5
	.cfi_startproc
	pushq	%rbp
	.cfi_def_cfa_offset 16
	.cfi_offset 6, -16
	movq	%rsp, %rbp
	.cfi_def_cfa_register 6
	movq	%rdi, -8(%rbp)
	movq	%rsi, -16(%rbp)
	.loc 6 463 29
	fildq	-16(%rbp)
	cmpq	$0, -16(%rbp)
	jns	.L32
	fldt	.LC1(%rip)
	faddp	%st, %st(1)
.L32:
	.loc 6 463 49
	movq	-8(%rbp), %rax
	movss	(%rax), %xmm0
	movss	%xmm0, -32(%rbp)
	.loc 6 463 36
	flds	-32(%rbp)
	.loc 6 463 29
	fdivrp	%st, %st(1)
	fnstcw	-18(%rbp)
	movzwl	-18(%rbp), %eax
	andb	$-13, %ah
	orb	$8, %ah
	movw	%ax, -22(%rbp)
	fldcw	-22(%rbp)
	frndint
	fldcw	-18(%rbp)
	.loc 6 463 67
	fldt	.LC2(%rip)
	fxch	%st(1)
	fcomi	%st(1), %st
	fstp	%st(1)
	jnb	.L33
	fnstcw	-18(%rbp)
	movzwl	-18(%rbp), %eax
	orb	$12, %ah
	movw	%ax, -20(%rbp)
	fldcw	-20(%rbp)
	fistpq	-32(%rbp)
	fldcw	-18(%rbp)
	movq	-32(%rbp), %rdx
	jmp	.L34
.L33:
	fldt	.LC2(%rip)
	fsubrp	%st, %st(1)
	fnstcw	-18(%rbp)
	movzwl	-18(%rbp), %eax
	orb	$12, %ah
	movw	%ax, -20(%rbp)
	fldcw	-20(%rbp)
	fistpq	-32(%rbp)
	fldcw	-18(%rbp)
	movq	-32(%rbp), %rdx
	movabsq	$-9223372036854775808, %rax
	xorq	%rax, %rdx
.L34:
	movq	%rdx, %rax
	.loc 6 463 70
	popq	%rbp
	.cfi_def_cfa 7, 8
	ret
	.cfi_endproc
.LFE2660:
	.size	_ZNKSt8__detail20_Prime_rehash_policy19_M_bkt_for_elementsEm, .-_ZNKSt8__detail20_Prime_rehash_policy19_M_bkt_for_elementsEm
	.section	.text._ZNKSt8__detail20_Prime_rehash_policy8_M_stateEv,"axG",@progbits,_ZNKSt8__detail20_Prime_rehash_policy8_M_stateEv,comdat
	.align 2
	.weak	_ZNKSt8__detail20_Prime_rehash_policy8_M_stateEv
	.type	_ZNKSt8__detail20_Prime_rehash_policy8_M_stateEv, @function
_ZNKSt8__detail20_Prime_rehash_policy8_M_stateEv:
.LFB2661:
	.loc 6 476 5
	.cfi_startproc
	pushq	%rbp
	.cfi_def_cfa_offset 16
	.cfi_offset 6, -16
	movq	%rsp, %rbp
	.cfi_def_cfa_register 6
	movq	%rdi, -8(%rbp)
	.loc 6 477 14
	movq	-8(%rbp), %rax
	movq	8(%rax), %rax
	.loc 6 477 30
	popq	%rbp
	.cfi_def_cfa 7, 8
	ret
	.cfi_endproc
.LFE2661:
	.size	_ZNKSt8__detail20_Prime_rehash_policy8_M_stateEv, .-_ZNKSt8__detail20_Prime_rehash_policy8_M_stateEv
	.section	.text._ZNSt8__detail20_Prime_rehash_policy8_M_resetEm,"axG",@progbits,_ZNSt8__detail20_Prime_rehash_policy8_M_resetEm,comdat
	.align 2
	.weak	_ZNSt8__detail20_Prime_rehash_policy8_M_resetEm
	.type	_ZNSt8__detail20_Prime_rehash_policy8_M_resetEm, @function
_ZNSt8__detail20_Prime_rehash_policy8_M_resetEm:
.LFB2663:
	.loc 6 484 5
	.cfi_startproc
	pushq	%rbp
	.cfi_def_cfa_offset 16
	.cfi_offset 6, -16
	movq	%rsp, %rbp
	.cfi_def_cfa_register 6
	movq	%rdi, -8(%rbp)
	movq	%rsi, -16(%rbp)
	.loc 6 485 22
	movq	-8(%rbp), %rax
	movq	-16(%rbp), %rdx
	movq	%rdx, 8(%rax)
	.loc 6 485 33
	nop
	popq	%rbp
	.cfi_def_cfa 7, 8
	ret
	.cfi_endproc
.LFE2663:
	.size	_ZNSt8__detail20_Prime_rehash_policy8_M_resetEm, .-_ZNSt8__detail20_Prime_rehash_policy8_M_resetEm
	.section	.text._ZSt3minImERKT_S2_S2_,"axG",@progbits,_ZSt3minImERKT_S2_S2_,comdat
	.weak	_ZSt3minImERKT_S2_S2_
	.type	_ZSt3minImERKT_S2_S2_, @function
_ZSt3minImERKT_S2_S2_:
.LFB2671:
	.file 7 "/usr/include/c++/10/bits/stl_algobase.h"
	.loc 7 230 5
	.cfi_startproc
	pushq	%rbp
	.cfi_def_cfa_offset 16
	.cfi_offset 6, -16
	movq	%rsp, %rbp
	.cfi_def_cfa_register 6
	movq	%rdi, -8(%rbp)
	movq	%rsi, -16(%rbp)
	.loc 7 235 15
	movq	-16(%rbp), %rax
	movq	(%rax), %rdx
	movq	-8(%rbp), %rax
	movq	(%rax), %rax
	.loc 7 235 7
	cmpq	%rax, %rdx
	jnb	.L40
	.loc 7 236 9
	movq	-16(%rbp), %rax
	jmp	.L41
.L40:
	.loc 7 237 14
	movq	-8(%rbp), %rax
.L41:
	.loc 7 238 5
	popq	%rbp
	.cfi_def_cfa 7, 8
	ret
	.cfi_endproc
.LFE2671:
	.size	_ZSt3minImERKT_S2_S2_, .-_ZSt3minImERKT_S2_S2_
	.section	.text._ZSt16__deque_buf_sizem,"axG",@progbits,_ZSt16__deque_buf_sizem,comdat
	.weak	_ZSt16__deque_buf_sizem
	.type	_ZSt16__deque_buf_sizem, @function
_ZSt16__deque_buf_sizem:
.LFB3397:
	.file 8 "/usr/include/c++/10/bits/stl_deque.h"
	.loc 8 97 3
	.cfi_startproc
	pushq	%rbp
	.cfi_def_cfa_offset 16
	.cfi_offset 6, -16
	movq	%rsp, %rbp
	.cfi_def_cfa_register 6
	movq	%rdi, -8(%rbp)
	.loc 8 98 6
	cmpq	$511, -8(%rbp)
	ja	.L43
	.loc 8 98 6 is_stmt 0 discriminator 1
	movl	$512, %eax
	movl	$0, %edx
	divq	-8(%rbp)
	.loc 8 98 60 is_stmt 1 discriminator 1
	jmp	.L45
.L43:
	.loc 8 98 6 discriminator 2
	movl	$1, %eax
.L45:
	.loc 8 98 63 discriminator 5
	popq	%rbp
	.cfi_def_cfa 7, 8
	ret
	.cfi_endproc
.LFE3397:
	.size	_ZSt16__deque_buf_sizem, .-_ZSt16__deque_buf_sizem
	.globl	global_queue
	.bss
	.align 32
	.type	global_queue, @object
	.size	global_queue, 80
global_queue:
	.zero	80
	.section	.text._ZNSt4pairIKNSt7__cxx1112basic_stringIcSt11char_traitsIcESaIcEEEiED2Ev,"axG",@progbits,_ZNSt4pairIKNSt7__cxx1112basic_stringIcSt11char_traitsIcESaIcEEEiED5Ev,comdat
	.align 2
	.weak	_ZNSt4pairIKNSt7__cxx1112basic_stringIcSt11char_traitsIcESaIcEEEiED2Ev
	.type	_ZNSt4pairIKNSt7__cxx1112basic_stringIcSt11char_traitsIcESaIcEEEiED2Ev, @function
_ZNSt4pairIKNSt7__cxx1112basic_stringIcSt11char_traitsIcESaIcEEEiED2Ev:
.LFB4105:
	.file 9 "/usr/include/c++/10/bits/stl_pair.h"
	.loc 9 211 12
	.cfi_startproc
	pushq	%rbp
	.cfi_def_cfa_offset 16
	.cfi_offset 6, -16
	movq	%rsp, %rbp
	.cfi_def_cfa_register 6
	subq	$16, %rsp
	movq	%rdi, -8(%rbp)
.LBB40:
	.loc 9 211 12
	movq	-8(%rbp), %rax
	movq	%rax, %rdi
	call	_ZNSt7__cxx1112basic_stringIcSt11char_traitsIcESaIcEED1Ev
.LBE40:
	nop
	leave
	.cfi_def_cfa 7, 8
	ret
	.cfi_endproc
.LFE4105:
	.size	_ZNSt4pairIKNSt7__cxx1112basic_stringIcSt11char_traitsIcESaIcEEEiED2Ev, .-_ZNSt4pairIKNSt7__cxx1112basic_stringIcSt11char_traitsIcESaIcEEEiED2Ev
	.weak	_ZNSt4pairIKNSt7__cxx1112basic_stringIcSt11char_traitsIcESaIcEEEiED1Ev
	.set	_ZNSt4pairIKNSt7__cxx1112basic_stringIcSt11char_traitsIcESaIcEEEiED1Ev,_ZNSt4pairIKNSt7__cxx1112basic_stringIcSt11char_traitsIcESaIcEEEiED2Ev
	.section	.text._ZNSt4pairIKNSt7__cxx1112basic_stringIcSt11char_traitsIcESaIcEEEiEC1IRA9_KciLb1EEEOT_OT0_,"axG",@progbits,_ZNSt4pairIKNSt7__cxx1112basic_stringIcSt11char_traitsIcESaIcEEEiEC1IRA9_KciLb1EEEOT_OT0_,comdat
	.align 2
	.weak	_ZNSt4pairIKNSt7__cxx1112basic_stringIcSt11char_traitsIcESaIcEEEiEC1IRA9_KciLb1EEEOT_OT0_
	.type	_ZNSt4pairIKNSt7__cxx1112basic_stringIcSt11char_traitsIcESaIcEEEiEC1IRA9_KciLb1EEEOT_OT0_, @function
_ZNSt4pairIKNSt7__cxx1112basic_stringIcSt11char_traitsIcESaIcEEEiEC1IRA9_KciLb1EEEOT_OT0_:
.LFB4109:
	.loc 9 352 12
	.cfi_startproc
	.cfi_personality 0x9b,DW.ref.__gxx_personality_v0
	.cfi_lsda 0x1b,.LLSDA4109
	pushq	%rbp
	.cfi_def_cfa_offset 16
	.cfi_offset 6, -16
	movq	%rsp, %rbp
	.cfi_def_cfa_register 6
	pushq	%rbx
	subq	$56, %rsp
	.cfi_offset 3, -24
	movq	%rdi, -40(%rbp)
	movq	%rsi, -48(%rbp)
	movq	%rdx, -56(%rbp)
.LBB41:
	.loc 9 353 64
	movq	-40(%rbp), %rbx
	leaq	-17(%rbp), %rax
	movq	%rax, %rdi
	call	_ZNSaIcEC1Ev@PLT
	.loc 9 353 27
	movq	-48(%rbp), %rax
	movq	%rax, %rdi
	call	_ZSt7forwardIRA9_KcEOT_RNSt16remove_referenceIS3_E4typeE
	movq	%rax, %rcx
	.loc 9 353 64
	leaq	-17(%rbp), %rax
	movq	%rax, %rdx
	movq	%rcx, %rsi
	movq	%rbx, %rdi
.LEHB0:
	call	_ZNSt7__cxx1112basic_stringIcSt11char_traitsIcESaIcEEC1IS3_EEPKcRKS3_
.LEHE0:
	.loc 5 525 59 discriminator 1
	leaq	-17(%rbp), %rax
	movq	%rax, %rdi
	call	_ZNSaIcED1Ev@PLT
	.loc 9 353 59 discriminator 1
	movq	-56(%rbp), %rax
	movq	%rax, %rdi
	call	_ZSt7forwardIiEOT_RNSt16remove_referenceIS0_E4typeE
	.loc 9 353 64 discriminator 1
	movl	(%rax), %edx
	movq	-40(%rbp), %rax
	movl	%edx, 32(%rax)
.LBE41:
	.loc 9 353 68 discriminator 1
	jmp	.L50
.L49:
.LBB42:
	.loc 5 525 59
	movq	%rax, %rbx
	leaq	-17(%rbp), %rax
	movq	%rax, %rdi
	call	_ZNSaIcED1Ev@PLT
	movq	%rbx, %rax
	movq	%rax, %rdi
.LEHB1:
	call	_Unwind_Resume@PLT
.LEHE1:
.L50:
.LBE42:
	.loc 9 353 68
	movq	-8(%rbp), %rbx
	leave
	.cfi_def_cfa 7, 8
	ret
	.cfi_endproc
.LFE4109:
	.section	.gcc_except_table._ZNSt4pairIKNSt7__cxx1112basic_stringIcSt11char_traitsIcESaIcEEEiEC1IRA9_KciLb1EEEOT_OT0_,"aG",@progbits,_ZNSt4pairIKNSt7__cxx1112basic_stringIcSt11char_traitsIcESaIcEEEiEC1IRA9_KciLb1EEEOT_OT0_,comdat
.LLSDA4109:
	.byte	0xff
	.byte	0xff
	.byte	0x1
	.uleb128 .LLSDACSE4109-.LLSDACSB4109
.LLSDACSB4109:
	.uleb128 .LEHB0-.LFB4109
	.uleb128 .LEHE0-.LEHB0
	.uleb128 .L49-.LFB4109
	.uleb128 0
	.uleb128 .LEHB1-.LFB4109
	.uleb128 .LEHE1-.LEHB1
	.uleb128 0
	.uleb128 0
.LLSDACSE4109:
	.section	.text._ZNSt4pairIKNSt7__cxx1112basic_stringIcSt11char_traitsIcESaIcEEEiEC1IRA9_KciLb1EEEOT_OT0_,"axG",@progbits,_ZNSt4pairIKNSt7__cxx1112basic_stringIcSt11char_traitsIcESaIcEEEiEC1IRA9_KciLb1EEEOT_OT0_,comdat
	.size	_ZNSt4pairIKNSt7__cxx1112basic_stringIcSt11char_traitsIcESaIcEEEiEC1IRA9_KciLb1EEEOT_OT0_, .-_ZNSt4pairIKNSt7__cxx1112basic_stringIcSt11char_traitsIcESaIcEEEiEC1IRA9_KciLb1EEEOT_OT0_
	.section	.text._ZNSt4pairIKNSt7__cxx1112basic_stringIcSt11char_traitsIcESaIcEEEiEC1IRA11_KciLb1EEEOT_OT0_,"axG",@progbits,_ZNSt4pairIKNSt7__cxx1112basic_stringIcSt11char_traitsIcESaIcEEEiEC1IRA11_KciLb1EEEOT_OT0_,comdat
	.align 2
	.weak	_ZNSt4pairIKNSt7__cxx1112basic_stringIcSt11char_traitsIcESaIcEEEiEC1IRA11_KciLb1EEEOT_OT0_
	.type	_ZNSt4pairIKNSt7__cxx1112basic_stringIcSt11char_traitsIcESaIcEEEiEC1IRA11_KciLb1EEEOT_OT0_, @function
_ZNSt4pairIKNSt7__cxx1112basic_stringIcSt11char_traitsIcESaIcEEEiEC1IRA11_KciLb1EEEOT_OT0_:
.LFB4112:
	.loc 9 352 12
	.cfi_startproc
	.cfi_personality 0x9b,DW.ref.__gxx_personality_v0
	.cfi_lsda 0x1b,.LLSDA4112
	pushq	%rbp
	.cfi_def_cfa_offset 16
	.cfi_offset 6, -16
	movq	%rsp, %rbp
	.cfi_def_cfa_register 6
	pushq	%rbx
	subq	$56, %rsp
	.cfi_offset 3, -24
	movq	%rdi, -40(%rbp)
	movq	%rsi, -48(%rbp)
	movq	%rdx, -56(%rbp)
.LBB43:
	.loc 9 353 64
	movq	-40(%rbp), %rbx
	leaq	-17(%rbp), %rax
	movq	%rax, %rdi
	call	_ZNSaIcEC1Ev@PLT
	.loc 9 353 27
	movq	-48(%rbp), %rax
	movq	%rax, %rdi
	call	_ZSt7forwardIRA11_KcEOT_RNSt16remove_referenceIS3_E4typeE
	movq	%rax, %rcx
	.loc 9 353 64
	leaq	-17(%rbp), %rax
	movq	%rax, %rdx
	movq	%rcx, %rsi
	movq	%rbx, %rdi
.LEHB2:
	call	_ZNSt7__cxx1112basic_stringIcSt11char_traitsIcESaIcEEC1IS3_EEPKcRKS3_
.LEHE2:
	.loc 5 525 59 discriminator 1
	leaq	-17(%rbp), %rax
	movq	%rax, %rdi
	call	_ZNSaIcED1Ev@PLT
	.loc 9 353 59 discriminator 1
	movq	-56(%rbp), %rax
	movq	%rax, %rdi
	call	_ZSt7forwardIiEOT_RNSt16remove_referenceIS0_E4typeE
	.loc 9 353 64 discriminator 1
	movl	(%rax), %edx
	movq	-40(%rbp), %rax
	movl	%edx, 32(%rax)
.LBE43:
	.loc 9 353 68 discriminator 1
	jmp	.L54
.L53:
.LBB44:
	.loc 5 525 59
	movq	%rax, %rbx
	leaq	-17(%rbp), %rax
	movq	%rax, %rdi
	call	_ZNSaIcED1Ev@PLT
	movq	%rbx, %rax
	movq	%rax, %rdi
.LEHB3:
	call	_Unwind_Resume@PLT
.LEHE3:
.L54:
.LBE44:
	.loc 9 353 68
	movq	-8(%rbp), %rbx
	leave
	.cfi_def_cfa 7, 8
	ret
	.cfi_endproc
.LFE4112:
	.section	.gcc_except_table._ZNSt4pairIKNSt7__cxx1112basic_stringIcSt11char_traitsIcESaIcEEEiEC1IRA11_KciLb1EEEOT_OT0_,"aG",@progbits,_ZNSt4pairIKNSt7__cxx1112basic_stringIcSt11char_traitsIcESaIcEEEiEC1IRA11_KciLb1EEEOT_OT0_,comdat
.LLSDA4112:
	.byte	0xff
	.byte	0xff
	.byte	0x1
	.uleb128 .LLSDACSE4112-.LLSDACSB4112
.LLSDACSB4112:
	.uleb128 .LEHB2-.LFB4112
	.uleb128 .LEHE2-.LEHB2
	.uleb128 .L53-.LFB4112
	.uleb128 0
	.uleb128 .LEHB3-.LFB4112
	.uleb128 .LEHE3-.LEHB3
	.uleb128 0
	.uleb128 0
.LLSDACSE4112:
	.section	.text._ZNSt4pairIKNSt7__cxx1112basic_stringIcSt11char_traitsIcESaIcEEEiEC1IRA11_KciLb1EEEOT_OT0_,"axG",@progbits,_ZNSt4pairIKNSt7__cxx1112basic_stringIcSt11char_traitsIcESaIcEEEiEC1IRA11_KciLb1EEEOT_OT0_,comdat
	.size	_ZNSt4pairIKNSt7__cxx1112basic_stringIcSt11char_traitsIcESaIcEEEiEC1IRA11_KciLb1EEEOT_OT0_, .-_ZNSt4pairIKNSt7__cxx1112basic_stringIcSt11char_traitsIcESaIcEEEiEC1IRA11_KciLb1EEEOT_OT0_
	.section	.text._ZNSt4pairIKNSt7__cxx1112basic_stringIcSt11char_traitsIcESaIcEEEiEC1IRA10_KciLb1EEEOT_OT0_,"axG",@progbits,_ZNSt4pairIKNSt7__cxx1112basic_stringIcSt11char_traitsIcESaIcEEEiEC1IRA10_KciLb1EEEOT_OT0_,comdat
	.align 2
	.weak	_ZNSt4pairIKNSt7__cxx1112basic_stringIcSt11char_traitsIcESaIcEEEiEC1IRA10_KciLb1EEEOT_OT0_
	.type	_ZNSt4pairIKNSt7__cxx1112basic_stringIcSt11char_traitsIcESaIcEEEiEC1IRA10_KciLb1EEEOT_OT0_, @function
_ZNSt4pairIKNSt7__cxx1112basic_stringIcSt11char_traitsIcESaIcEEEiEC1IRA10_KciLb1EEEOT_OT0_:
.LFB4115:
	.loc 9 352 12
	.cfi_startproc
	.cfi_personality 0x9b,DW.ref.__gxx_personality_v0
	.cfi_lsda 0x1b,.LLSDA4115
	pushq	%rbp
	.cfi_def_cfa_offset 16
	.cfi_offset 6, -16
	movq	%rsp, %rbp
	.cfi_def_cfa_register 6
	pushq	%rbx
	subq	$56, %rsp
	.cfi_offset 3, -24
	movq	%rdi, -40(%rbp)
	movq	%rsi, -48(%rbp)
	movq	%rdx, -56(%rbp)
.LBB45:
	.loc 9 353 64
	movq	-40(%rbp), %rbx
	leaq	-17(%rbp), %rax
	movq	%rax, %rdi
	call	_ZNSaIcEC1Ev@PLT
	.loc 9 353 27
	movq	-48(%rbp), %rax
	movq	%rax, %rdi
	call	_ZSt7forwardIRA10_KcEOT_RNSt16remove_referenceIS3_E4typeE
	movq	%rax, %rcx
	.loc 9 353 64
	leaq	-17(%rbp), %rax
	movq	%rax, %rdx
	movq	%rcx, %rsi
	movq	%rbx, %rdi
.LEHB4:
	call	_ZNSt7__cxx1112basic_stringIcSt11char_traitsIcESaIcEEC1IS3_EEPKcRKS3_
.LEHE4:
	.loc 5 525 59 discriminator 1
	leaq	-17(%rbp), %rax
	movq	%rax, %rdi
	call	_ZNSaIcED1Ev@PLT
	.loc 9 353 59 discriminator 1
	movq	-56(%rbp), %rax
	movq	%rax, %rdi
	call	_ZSt7forwardIiEOT_RNSt16remove_referenceIS0_E4typeE
	.loc 9 353 64 discriminator 1
	movl	(%rax), %edx
	movq	-40(%rbp), %rax
	movl	%edx, 32(%rax)
.LBE45:
	.loc 9 353 68 discriminator 1
	jmp	.L58
.L57:
.LBB46:
	.loc 5 525 59
	movq	%rax, %rbx
	leaq	-17(%rbp), %rax
	movq	%rax, %rdi
	call	_ZNSaIcED1Ev@PLT
	movq	%rbx, %rax
	movq	%rax, %rdi
.LEHB5:
	call	_Unwind_Resume@PLT
.LEHE5:
.L58:
.LBE46:
	.loc 9 353 68
	movq	-8(%rbp), %rbx
	leave
	.cfi_def_cfa 7, 8
	ret
	.cfi_endproc
.LFE4115:
	.section	.gcc_except_table._ZNSt4pairIKNSt7__cxx1112basic_stringIcSt11char_traitsIcESaIcEEEiEC1IRA10_KciLb1EEEOT_OT0_,"aG",@progbits,_ZNSt4pairIKNSt7__cxx1112basic_stringIcSt11char_traitsIcESaIcEEEiEC1IRA10_KciLb1EEEOT_OT0_,comdat
.LLSDA4115:
	.byte	0xff
	.byte	0xff
	.byte	0x1
	.uleb128 .LLSDACSE4115-.LLSDACSB4115
.LLSDACSB4115:
	.uleb128 .LEHB4-.LFB4115
	.uleb128 .LEHE4-.LEHB4
	.uleb128 .L57-.LFB4115
	.uleb128 0
	.uleb128 .LEHB5-.LFB4115
	.uleb128 .LEHE5-.LEHB5
	.uleb128 0
	.uleb128 0
.LLSDACSE4115:
	.section	.text._ZNSt4pairIKNSt7__cxx1112basic_stringIcSt11char_traitsIcESaIcEEEiEC1IRA10_KciLb1EEEOT_OT0_,"axG",@progbits,_ZNSt4pairIKNSt7__cxx1112basic_stringIcSt11char_traitsIcESaIcEEEiEC1IRA10_KciLb1EEEOT_OT0_,comdat
	.size	_ZNSt4pairIKNSt7__cxx1112basic_stringIcSt11char_traitsIcESaIcEEEiEC1IRA10_KciLb1EEEOT_OT0_, .-_ZNSt4pairIKNSt7__cxx1112basic_stringIcSt11char_traitsIcESaIcEEEiEC1IRA10_KciLb1EEEOT_OT0_
	.section	.text._ZNSt4pairIKNSt7__cxx1112basic_stringIcSt11char_traitsIcESaIcEEEiEC1IRA6_KciLb1EEEOT_OT0_,"axG",@progbits,_ZNSt4pairIKNSt7__cxx1112basic_stringIcSt11char_traitsIcESaIcEEEiEC1IRA6_KciLb1EEEOT_OT0_,comdat
	.align 2
	.weak	_ZNSt4pairIKNSt7__cxx1112basic_stringIcSt11char_traitsIcESaIcEEEiEC1IRA6_KciLb1EEEOT_OT0_
	.type	_ZNSt4pairIKNSt7__cxx1112basic_stringIcSt11char_traitsIcESaIcEEEiEC1IRA6_KciLb1EEEOT_OT0_, @function
_ZNSt4pairIKNSt7__cxx1112basic_stringIcSt11char_traitsIcESaIcEEEiEC1IRA6_KciLb1EEEOT_OT0_:
.LFB4118:
	.loc 9 352 12
	.cfi_startproc
	.cfi_personality 0x9b,DW.ref.__gxx_personality_v0
	.cfi_lsda 0x1b,.LLSDA4118
	pushq	%rbp
	.cfi_def_cfa_offset 16
	.cfi_offset 6, -16
	movq	%rsp, %rbp
	.cfi_def_cfa_register 6
	pushq	%rbx
	subq	$56, %rsp
	.cfi_offset 3, -24
	movq	%rdi, -40(%rbp)
	movq	%rsi, -48(%rbp)
	movq	%rdx, -56(%rbp)
.LBB47:
	.loc 9 353 64
	movq	-40(%rbp), %rbx
	leaq	-17(%rbp), %rax
	movq	%rax, %rdi
	call	_ZNSaIcEC1Ev@PLT
	.loc 9 353 27
	movq	-48(%rbp), %rax
	movq	%rax, %rdi
	call	_ZSt7forwardIRA6_KcEOT_RNSt16remove_referenceIS3_E4typeE
	movq	%rax, %rcx
	.loc 9 353 64
	leaq	-17(%rbp), %rax
	movq	%rax, %rdx
	movq	%rcx, %rsi
	movq	%rbx, %rdi
.LEHB6:
	call	_ZNSt7__cxx1112basic_stringIcSt11char_traitsIcESaIcEEC1IS3_EEPKcRKS3_
.LEHE6:
	.loc 5 525 59 discriminator 1
	leaq	-17(%rbp), %rax
	movq	%rax, %rdi
	call	_ZNSaIcED1Ev@PLT
	.loc 9 353 59 discriminator 1
	movq	-56(%rbp), %rax
	movq	%rax, %rdi
	call	_ZSt7forwardIiEOT_RNSt16remove_referenceIS0_E4typeE
	.loc 9 353 64 discriminator 1
	movl	(%rax), %edx
	movq	-40(%rbp), %rax
	movl	%edx, 32(%rax)
.LBE47:
	.loc 9 353 68 discriminator 1
	jmp	.L62
.L61:
.LBB48:
	.loc 5 525 59
	movq	%rax, %rbx
	leaq	-17(%rbp), %rax
	movq	%rax, %rdi
	call	_ZNSaIcED1Ev@PLT
	movq	%rbx, %rax
	movq	%rax, %rdi
.LEHB7:
	call	_Unwind_Resume@PLT
.LEHE7:
.L62:
.LBE48:
	.loc 9 353 68
	movq	-8(%rbp), %rbx
	leave
	.cfi_def_cfa 7, 8
	ret
	.cfi_endproc
.LFE4118:
	.section	.gcc_except_table._ZNSt4pairIKNSt7__cxx1112basic_stringIcSt11char_traitsIcESaIcEEEiEC1IRA6_KciLb1EEEOT_OT0_,"aG",@progbits,_ZNSt4pairIKNSt7__cxx1112basic_stringIcSt11char_traitsIcESaIcEEEiEC1IRA6_KciLb1EEEOT_OT0_,comdat
.LLSDA4118:
	.byte	0xff
	.byte	0xff
	.byte	0x1
	.uleb128 .LLSDACSE4118-.LLSDACSB4118
.LLSDACSB4118:
	.uleb128 .LEHB6-.LFB4118
	.uleb128 .LEHE6-.LEHB6
	.uleb128 .L61-.LFB4118
	.uleb128 0
	.uleb128 .LEHB7-.LFB4118
	.uleb128 .LEHE7-.LEHB7
	.uleb128 0
	.uleb128 0
.LLSDACSE4118:
	.section	.text._ZNSt4pairIKNSt7__cxx1112basic_stringIcSt11char_traitsIcESaIcEEEiEC1IRA6_KciLb1EEEOT_OT0_,"axG",@progbits,_ZNSt4pairIKNSt7__cxx1112basic_stringIcSt11char_traitsIcESaIcEEEiEC1IRA6_KciLb1EEEOT_OT0_,comdat
	.size	_ZNSt4pairIKNSt7__cxx1112basic_stringIcSt11char_traitsIcESaIcEEEiEC1IRA6_KciLb1EEEOT_OT0_, .-_ZNSt4pairIKNSt7__cxx1112basic_stringIcSt11char_traitsIcESaIcEEEiEC1IRA6_KciLb1EEEOT_OT0_
	.section	.text._ZNSt13unordered_mapINSt7__cxx1112basic_stringIcSt11char_traitsIcESaIcEEEiSt4hashIS5_ESt8equal_toIS5_ESaISt4pairIKS5_iEEED2Ev,"axG",@progbits,_ZNSt13unordered_mapINSt7__cxx1112basic_stringIcSt11char_traitsIcESaIcEEEiSt4hashIS5_ESt8equal_toIS5_ESaISt4pairIKS5_iEEED5Ev,comdat
	.align 2
	.weak	_ZNSt13unordered_mapINSt7__cxx1112basic_stringIcSt11char_traitsIcESaIcEEEiSt4hashIS5_ESt8equal_toIS5_ESaISt4pairIKS5_iEEED2Ev
	.type	_ZNSt13unordered_mapINSt7__cxx1112basic_stringIcSt11char_traitsIcESaIcEEEiSt4hashIS5_ESt8equal_toIS5_ESaISt4pairIKS5_iEEED2Ev, @function
_ZNSt13unordered_mapINSt7__cxx1112basic_stringIcSt11char_traitsIcESaIcEEEiSt4hashIS5_ESt8equal_toIS5_ESaISt4pairIKS5_iEEED2Ev:
.LFB4120:
	.file 10 "/usr/include/c++/10/bits/unordered_map.h"
	.loc 10 102 11
	.cfi_startproc
	pushq	%rbp
	.cfi_def_cfa_offset 16
	.cfi_offset 6, -16
	movq	%rsp, %rbp
	.cfi_def_cfa_register 6
	subq	$16, %rsp
	movq	%rdi, -8(%rbp)
.LBB49:
	.loc 10 102 11
	movq	-8(%rbp), %rax
	movq	%rax, %rdi
	call	_ZNSt10_HashtableINSt7__cxx1112basic_stringIcSt11char_traitsIcESaIcEEESt4pairIKS5_iESaIS8_ENSt8__detail10_Select1stESt8equal_toIS5_ESt4hashIS5_ENSA_18_Mod_range_hashingENSA_20_Default_ranged_hashENSA_20_Prime_rehash_policyENSA_17_Hashtable_traitsILb1ELb0ELb1EEEED1Ev
.LBE49:
	nop
	leave
	.cfi_def_cfa 7, 8
	ret
	.cfi_endproc
.LFE4120:
	.size	_ZNSt13unordered_mapINSt7__cxx1112basic_stringIcSt11char_traitsIcESaIcEEEiSt4hashIS5_ESt8equal_toIS5_ESaISt4pairIKS5_iEEED2Ev, .-_ZNSt13unordered_mapINSt7__cxx1112basic_stringIcSt11char_traitsIcESaIcEEEiSt4hashIS5_ESt8equal_toIS5_ESaISt4pairIKS5_iEEED2Ev
	.weak	_ZNSt13unordered_mapINSt7__cxx1112basic_stringIcSt11char_traitsIcESaIcEEEiSt4hashIS5_ESt8equal_toIS5_ESaISt4pairIKS5_iEEED1Ev
	.set	_ZNSt13unordered_mapINSt7__cxx1112basic_stringIcSt11char_traitsIcESaIcEEEiSt4hashIS5_ESt8equal_toIS5_ESaISt4pairIKS5_iEEED1Ev,_ZNSt13unordered_mapINSt7__cxx1112basic_stringIcSt11char_traitsIcESaIcEEEiSt4hashIS5_ESt8equal_toIS5_ESaISt4pairIKS5_iEEED2Ev
	.globl	_Z5codesB5cxx11
	.bss
	.align 32
	.type	_Z5codesB5cxx11, @object
	.size	_Z5codesB5cxx11, 56
_Z5codesB5cxx11:
	.zero	56
	.section	.text._ZNSt8__detail21_Hashtable_ebo_helperILi0ESaINS_10_Hash_nodeISt4pairIKi16participant_infoELb0EEEELb1EEC2Ev,"axG",@progbits,_ZNSt8__detail21_Hashtable_ebo_helperILi0ESaINS_10_Hash_nodeISt4pairIKi16participant_infoELb0EEEELb1EEC5Ev,comdat
	.align 2
	.weak	_ZNSt8__detail21_Hashtable_ebo_helperILi0ESaINS_10_Hash_nodeISt4pairIKi16participant_infoELb0EEEELb1EEC2Ev
	.type	_ZNSt8__detail21_Hashtable_ebo_helperILi0ESaINS_10_Hash_nodeISt4pairIKi16participant_infoELb0EEEELb1EEC2Ev, @function
_ZNSt8__detail21_Hashtable_ebo_helperILi0ESaINS_10_Hash_nodeISt4pairIKi16participant_infoELb0EEEELb1EEC2Ev:
.LFB4127:
	.loc 6 1112 7
	.cfi_startproc
	pushq	%rbp
	.cfi_def_cfa_offset 16
	.cfi_offset 6, -16
	movq	%rsp, %rbp
	.cfi_def_cfa_register 6
	subq	$16, %rsp
	movq	%rdi, -8(%rbp)
.LBB50:
	.loc 6 1112 7
	movq	-8(%rbp), %rax
	movq	%rax, %rdi
	call	_ZNSaINSt8__detail10_Hash_nodeISt4pairIKi16participant_infoELb0EEEEC2Ev
.LBE50:
	nop
	leave
	.cfi_def_cfa 7, 8
	ret
	.cfi_endproc
.LFE4127:
	.size	_ZNSt8__detail21_Hashtable_ebo_helperILi0ESaINS_10_Hash_nodeISt4pairIKi16participant_infoELb0EEEELb1EEC2Ev, .-_ZNSt8__detail21_Hashtable_ebo_helperILi0ESaINS_10_Hash_nodeISt4pairIKi16participant_infoELb0EEEELb1EEC2Ev
	.weak	_ZNSt8__detail21_Hashtable_ebo_helperILi0ESaINS_10_Hash_nodeISt4pairIKi16participant_infoELb0EEEELb1EEC1Ev
	.set	_ZNSt8__detail21_Hashtable_ebo_helperILi0ESaINS_10_Hash_nodeISt4pairIKi16participant_infoELb0EEEELb1EEC1Ev,_ZNSt8__detail21_Hashtable_ebo_helperILi0ESaINS_10_Hash_nodeISt4pairIKi16participant_infoELb0EEEELb1EEC2Ev
	.section	.text._ZNSt8__detail21_Hashtable_ebo_helperILi0ESaINS_10_Hash_nodeISt4pairIKi16participant_infoELb0EEEELb1EED2Ev,"axG",@progbits,_ZNSt8__detail21_Hashtable_ebo_helperILi0ESaINS_10_Hash_nodeISt4pairIKi16participant_infoELb0EEEELb1EED5Ev,comdat
	.align 2
	.weak	_ZNSt8__detail21_Hashtable_ebo_helperILi0ESaINS_10_Hash_nodeISt4pairIKi16participant_infoELb0EEEELb1EED2Ev
	.type	_ZNSt8__detail21_Hashtable_ebo_helperILi0ESaINS_10_Hash_nodeISt4pairIKi16participant_infoELb0EEEELb1EED2Ev, @function
_ZNSt8__detail21_Hashtable_ebo_helperILi0ESaINS_10_Hash_nodeISt4pairIKi16participant_infoELb0EEEELb1EED2Ev:
.LFB4130:
	.loc 6 1109 12
	.cfi_startproc
	pushq	%rbp
	.cfi_def_cfa_offset 16
	.cfi_offset 6, -16
	movq	%rsp, %rbp
	.cfi_def_cfa_register 6
	subq	$16, %rsp
	movq	%rdi, -8(%rbp)
.LBB51:
	.loc 6 1109 12
	movq	-8(%rbp), %rax
	movq	%rax, %rdi
	call	_ZNSaINSt8__detail10_Hash_nodeISt4pairIKi16participant_infoELb0EEEED2Ev
.LBE51:
	nop
	leave
	.cfi_def_cfa 7, 8
	ret
	.cfi_endproc
.LFE4130:
	.size	_ZNSt8__detail21_Hashtable_ebo_helperILi0ESaINS_10_Hash_nodeISt4pairIKi16participant_infoELb0EEEELb1EED2Ev, .-_ZNSt8__detail21_Hashtable_ebo_helperILi0ESaINS_10_Hash_nodeISt4pairIKi16participant_infoELb0EEEELb1EED2Ev
	.weak	_ZNSt8__detail21_Hashtable_ebo_helperILi0ESaINS_10_Hash_nodeISt4pairIKi16participant_infoELb0EEEELb1EED1Ev
	.set	_ZNSt8__detail21_Hashtable_ebo_helperILi0ESaINS_10_Hash_nodeISt4pairIKi16participant_infoELb0EEEELb1EED1Ev,_ZNSt8__detail21_Hashtable_ebo_helperILi0ESaINS_10_Hash_nodeISt4pairIKi16participant_infoELb0EEEELb1EED2Ev
	.section	.text._ZNSt8__detail16_Hashtable_allocISaINS_10_Hash_nodeISt4pairIKi16participant_infoELb0EEEEEC2Ev,"axG",@progbits,_ZNSt8__detail16_Hashtable_allocISaINS_10_Hash_nodeISt4pairIKi16participant_infoELb0EEEEEC5Ev,comdat
	.align 2
	.weak	_ZNSt8__detail16_Hashtable_allocISaINS_10_Hash_nodeISt4pairIKi16participant_infoELb0EEEEEC2Ev
	.type	_ZNSt8__detail16_Hashtable_allocISaINS_10_Hash_nodeISt4pairIKi16participant_infoELb0EEEEEC2Ev, @function
_ZNSt8__detail16_Hashtable_allocISaINS_10_Hash_nodeISt4pairIKi16participant_infoELb0EEEEEC2Ev:
.LFB4132:
	.loc 6 1982 7
	.cfi_startproc
	pushq	%rbp
	.cfi_def_cfa_offset 16
	.cfi_offset 6, -16
	movq	%rsp, %rbp
	.cfi_def_cfa_register 6
	subq	$16, %rsp
	movq	%rdi, -8(%rbp)
.LBB52:
	.loc 6 1982 7
	movq	-8(%rbp), %rax
	movq	%rax, %rdi
	call	_ZNSt8__detail21_Hashtable_ebo_helperILi0ESaINS_10_Hash_nodeISt4pairIKi16participant_infoELb0EEEELb1EEC2Ev
.LBE52:
	nop
	leave
	.cfi_def_cfa 7, 8
	ret
	.cfi_endproc
.LFE4132:
	.size	_ZNSt8__detail16_Hashtable_allocISaINS_10_Hash_nodeISt4pairIKi16participant_infoELb0EEEEEC2Ev, .-_ZNSt8__detail16_Hashtable_allocISaINS_10_Hash_nodeISt4pairIKi16participant_infoELb0EEEEEC2Ev
	.weak	_ZNSt8__detail16_Hashtable_allocISaINS_10_Hash_nodeISt4pairIKi16participant_infoELb0EEEEEC1Ev
	.set	_ZNSt8__detail16_Hashtable_allocISaINS_10_Hash_nodeISt4pairIKi16participant_infoELb0EEEEEC1Ev,_ZNSt8__detail16_Hashtable_allocISaINS_10_Hash_nodeISt4pairIKi16participant_infoELb0EEEEEC2Ev
	.section	.text._ZNSt8__detail16_Hashtable_allocISaINS_10_Hash_nodeISt4pairIKi16participant_infoELb0EEEEED2Ev,"axG",@progbits,_ZNSt8__detail16_Hashtable_allocISaINS_10_Hash_nodeISt4pairIKi16participant_infoELb0EEEEED5Ev,comdat
	.align 2
	.weak	_ZNSt8__detail16_Hashtable_allocISaINS_10_Hash_nodeISt4pairIKi16participant_infoELb0EEEEED2Ev
	.type	_ZNSt8__detail16_Hashtable_allocISaINS_10_Hash_nodeISt4pairIKi16participant_infoELb0EEEEED2Ev, @function
_ZNSt8__detail16_Hashtable_allocISaINS_10_Hash_nodeISt4pairIKi16participant_infoELb0EEEEED2Ev:
.LFB4135:
	.loc 6 1963 12
	.cfi_startproc
	pushq	%rbp
	.cfi_def_cfa_offset 16
	.cfi_offset 6, -16
	movq	%rsp, %rbp
	.cfi_def_cfa_register 6
	subq	$16, %rsp
	movq	%rdi, -8(%rbp)
.LBB53:
	.loc 6 1963 12
	movq	-8(%rbp), %rax
	movq	%rax, %rdi
	call	_ZNSt8__detail21_Hashtable_ebo_helperILi0ESaINS_10_Hash_nodeISt4pairIKi16participant_infoELb0EEEELb1EED2Ev
.LBE53:
	nop
	leave
	.cfi_def_cfa 7, 8
	ret
	.cfi_endproc
.LFE4135:
	.size	_ZNSt8__detail16_Hashtable_allocISaINS_10_Hash_nodeISt4pairIKi16participant_infoELb0EEEEED2Ev, .-_ZNSt8__detail16_Hashtable_allocISaINS_10_Hash_nodeISt4pairIKi16participant_infoELb0EEEEED2Ev
	.weak	_ZNSt8__detail16_Hashtable_allocISaINS_10_Hash_nodeISt4pairIKi16participant_infoELb0EEEEED1Ev
	.set	_ZNSt8__detail16_Hashtable_allocISaINS_10_Hash_nodeISt4pairIKi16participant_infoELb0EEEEED1Ev,_ZNSt8__detail16_Hashtable_allocISaINS_10_Hash_nodeISt4pairIKi16participant_infoELb0EEEEED2Ev
	.section	.text._ZNSt10_HashtableIiSt4pairIKi16participant_infoESaIS3_ENSt8__detail10_Select1stESt8equal_toIiESt4hashIiENS5_18_Mod_range_hashingENS5_20_Default_ranged_hashENS5_20_Prime_rehash_policyENS5_17_Hashtable_traitsILb0ELb0ELb1EEEEC2Ev,"axG",@progbits,_ZNSt10_HashtableIiSt4pairIKi16participant_infoESaIS3_ENSt8__detail10_Select1stESt8equal_toIiESt4hashIiENS5_18_Mod_range_hashingENS5_20_Default_ranged_hashENS5_20_Prime_rehash_policyENS5_17_Hashtable_traitsILb0ELb0ELb1EEEEC5Ev,comdat
	.align 2
	.weak	_ZNSt10_HashtableIiSt4pairIKi16participant_infoESaIS3_ENSt8__detail10_Select1stESt8equal_toIiESt4hashIiENS5_18_Mod_range_hashingENS5_20_Default_ranged_hashENS5_20_Prime_rehash_policyENS5_17_Hashtable_traitsILb0ELb0ELb1EEEEC2Ev
	.type	_ZNSt10_HashtableIiSt4pairIKi16participant_infoESaIS3_ENSt8__detail10_Select1stESt8equal_toIiESt4hashIiENS5_18_Mod_range_hashingENS5_20_Default_ranged_hashENS5_20_Prime_rehash_policyENS5_17_Hashtable_traitsILb0ELb0ELb1EEEEC2Ev, @function
_ZNSt10_HashtableIiSt4pairIKi16participant_infoESaIS3_ENSt8__detail10_Select1stESt8equal_toIiESt4hashIiENS5_18_Mod_range_hashingENS5_20_Default_ranged_hashENS5_20_Prime_rehash_policyENS5_17_Hashtable_traitsILb0ELb0ELb1EEEEC2Ev:
.LFB4137:
	.file 11 "/usr/include/c++/10/bits/hashtable.h"
	.loc 11 451 7
	.cfi_startproc
	pushq	%rbp
	.cfi_def_cfa_offset 16
	.cfi_offset 6, -16
	movq	%rsp, %rbp
	.cfi_def_cfa_register 6
	subq	$16, %rsp
	movq	%rdi, -8(%rbp)
.LBB54:
	.loc 11 451 7
	movq	-8(%rbp), %rax
	movq	%rax, %rdi
	call	_ZNSt8__detail16_Hashtable_allocISaINS_10_Hash_nodeISt4pairIKi16participant_infoELb0EEEEEC2Ev
	movq	-8(%rbp), %rax
	leaq	48(%rax), %rdx
	movq	-8(%rbp), %rax
	movq	%rdx, (%rax)
	movq	-8(%rbp), %rax
	movq	$1, 8(%rax)
	movq	-8(%rbp), %rax
	addq	$16, %rax
	movq	%rax, %rdi
	call	_ZNSt8__detail15_Hash_node_baseC1Ev
	movq	-8(%rbp), %rax
	movq	$0, 24(%rax)
	movq	-8(%rbp), %rax
	addq	$32, %rax
	movss	.LC4(%rip), %xmm0
	movq	%rax, %rdi
	call	_ZNSt8__detail20_Prime_rehash_policyC1Ef
	movq	-8(%rbp), %rax
	movq	$0, 48(%rax)
.LBE54:
	nop
	leave
	.cfi_def_cfa 7, 8
	ret
	.cfi_endproc
.LFE4137:
	.size	_ZNSt10_HashtableIiSt4pairIKi16participant_infoESaIS3_ENSt8__detail10_Select1stESt8equal_toIiESt4hashIiENS5_18_Mod_range_hashingENS5_20_Default_ranged_hashENS5_20_Prime_rehash_policyENS5_17_Hashtable_traitsILb0ELb0ELb1EEEEC2Ev, .-_ZNSt10_HashtableIiSt4pairIKi16participant_infoESaIS3_ENSt8__detail10_Select1stESt8equal_toIiESt4hashIiENS5_18_Mod_range_hashingENS5_20_Default_ranged_hashENS5_20_Prime_rehash_policyENS5_17_Hashtable_traitsILb0ELb0ELb1EEEEC2Ev
	.weak	_ZNSt10_HashtableIiSt4pairIKi16participant_infoESaIS3_ENSt8__detail10_Select1stESt8equal_toIiESt4hashIiENS5_18_Mod_range_hashingENS5_20_Default_ranged_hashENS5_20_Prime_rehash_policyENS5_17_Hashtable_traitsILb0ELb0ELb1EEEEC1Ev
	.set	_ZNSt10_HashtableIiSt4pairIKi16participant_infoESaIS3_ENSt8__detail10_Select1stESt8equal_toIiESt4hashIiENS5_18_Mod_range_hashingENS5_20_Default_ranged_hashENS5_20_Prime_rehash_policyENS5_17_Hashtable_traitsILb0ELb0ELb1EEEEC1Ev,_ZNSt10_HashtableIiSt4pairIKi16participant_infoESaIS3_ENSt8__detail10_Select1stESt8equal_toIiESt4hashIiENS5_18_Mod_range_hashingENS5_20_Default_ranged_hashENS5_20_Prime_rehash_policyENS5_17_Hashtable_traitsILb0ELb0ELb1EEEEC2Ev
	.section	.text._ZNSt13unordered_mapIi16participant_infoSt4hashIiESt8equal_toIiESaISt4pairIKiS0_EEEC2Ev,"axG",@progbits,_ZNSt13unordered_mapIi16participant_infoSt4hashIiESt8equal_toIiESaISt4pairIKiS0_EEEC5Ev,comdat
	.align 2
	.weak	_ZNSt13unordered_mapIi16participant_infoSt4hashIiESt8equal_toIiESaISt4pairIKiS0_EEEC2Ev
	.type	_ZNSt13unordered_mapIi16participant_infoSt4hashIiESt8equal_toIiESaISt4pairIKiS0_EEEC2Ev, @function
_ZNSt13unordered_mapIi16participant_infoSt4hashIiESt8equal_toIiESaISt4pairIKiS0_EEEC2Ev:
.LFB4139:
	.loc 10 141 7
	.cfi_startproc
	pushq	%rbp
	.cfi_def_cfa_offset 16
	.cfi_offset 6, -16
	movq	%rsp, %rbp
	.cfi_def_cfa_register 6
	subq	$16, %rsp
	movq	%rdi, -8(%rbp)
.LBB55:
	.loc 10 141 7
	movq	-8(%rbp), %rax
	movq	%rax, %rdi
	call	_ZNSt10_HashtableIiSt4pairIKi16participant_infoESaIS3_ENSt8__detail10_Select1stESt8equal_toIiESt4hashIiENS5_18_Mod_range_hashingENS5_20_Default_ranged_hashENS5_20_Prime_rehash_policyENS5_17_Hashtable_traitsILb0ELb0ELb1EEEEC1Ev
.LBE55:
	nop
	leave
	.cfi_def_cfa 7, 8
	ret
	.cfi_endproc
.LFE4139:
	.size	_ZNSt13unordered_mapIi16participant_infoSt4hashIiESt8equal_toIiESaISt4pairIKiS0_EEEC2Ev, .-_ZNSt13unordered_mapIi16participant_infoSt4hashIiESt8equal_toIiESaISt4pairIKiS0_EEEC2Ev
	.weak	_ZNSt13unordered_mapIi16participant_infoSt4hashIiESt8equal_toIiESaISt4pairIKiS0_EEEC1Ev
	.set	_ZNSt13unordered_mapIi16participant_infoSt4hashIiESt8equal_toIiESaISt4pairIKiS0_EEEC1Ev,_ZNSt13unordered_mapIi16participant_infoSt4hashIiESt8equal_toIiESaISt4pairIKiS0_EEEC2Ev
	.globl	client_table
	.bss
	.align 32
	.type	client_table, @object
	.size	client_table, 56
client_table:
	.zero	56
	.globl	sem_full
	.align 32
	.type	sem_full, @object
	.size	sem_full, 32
sem_full:
	.zero	32
	.globl	sem_empty
	.align 32
	.type	sem_empty, @object
	.size	sem_empty, 32
sem_empty:
	.zero	32
	.globl	mutex
	.align 32
	.type	mutex, @object
	.size	mutex, 40
mutex:
	.zero	40
	.globl	message_mutex
	.align 32
	.type	message_mutex, @object
	.size	message_mutex, 40
message_mutex:
	.zero	40
	.section	.rodata
	.align 8
.LC5:
	.string	"Incorrect executable format. Must be {./file [config_file]}\n"
.LC6:
	.string	"Failed to create the socket."
	.align 8
.LC7:
	.string	"Could not bind the socket to the port "
	.align 8
.LC8:
	.string	"Could not accept the first oncoming connection."
	.text
	.globl	main
	.type	main, @function
main:
.LFB4141:
	.file 12 "coordinator.cpp"
	.loc 12 48 1
	.cfi_startproc
	.cfi_personality 0x9b,DW.ref.__gxx_personality_v0
	.cfi_lsda 0x1b,.LLSDA4141
	pushq	%rbp
	.cfi_def_cfa_offset 16
	.cfi_offset 6, -16
	movq	%rsp, %rbp
	.cfi_def_cfa_register 6
	pushq	%rbx
	subq	$840, %rsp
	.cfi_offset 3, -24
	movl	%edi, -836(%rbp)
	movq	%rsi, -848(%rbp)
	.loc 12 49 5
	cmpl	$2, -836(%rbp)
	je	.L71
	.loc 12 50 22
	leaq	.LC5(%rip), %rsi
	leaq	_ZSt4cerr(%rip), %rdi
.LEHB8:
	call	_ZStlsISt11char_traitsIcEERSt13basic_ostreamIcT_ES5_PKc@PLT
.LEHE8:
	.loc 12 51 13
	movl	$1, %edi
	call	exit@PLT
.L71:
	.loc 12 54 41
	leaq	-129(%rbp), %rax
	movq	%rax, %rdi
	call	_ZNSaIcEC1Ev@PLT
	.loc 12 54 40
	movq	-848(%rbp), %rax
	addq	$8, %rax
	.loc 12 54 41
	movq	(%rax), %rcx
	leaq	-129(%rbp), %rdx
	leaq	-176(%rbp), %rax
	movq	%rcx, %rsi
	movq	%rax, %rdi
.LEHB9:
	call	_ZNSt7__cxx1112basic_stringIcSt11char_traitsIcESaIcEEC1IS3_EEPKcRKS3_
.LEHE9:
	leaq	-129(%rbp), %rax
	movq	%rax, %rdi
	call	_ZNSaIcED1Ev@PLT
	.loc 12 57 34
	leaq	-176(%rbp), %rcx
	leaq	-704(%rbp), %rax
	movl	$8, %edx
	movq	%rcx, %rsi
	movq	%rax, %rdi
.LEHB10:
	call	_ZNSt14basic_ifstreamIcSt11char_traitsIcEEC1ERKNSt7__cxx1112basic_stringIcS1_SaIcEEESt13_Ios_Openmode@PLT
.LEHE10:
	.loc 12 59 13
	leaq	-708(%rbp), %rdx
	leaq	-704(%rbp), %rax
	movq	%rdx, %rsi
	movq	%rax, %rdi
.LEHB11:
	call	_ZNSirsERi@PLT
	movq	%rax, %rdx
	.loc 12 59 21
	leaq	-712(%rbp), %rax
	movq	%rax, %rsi
	movq	%rdx, %rdi
	call	_ZNSirsERi@PLT
.LEHE11:
	.loc 12 61 24
	movl	$0, %edx
	movl	$1, %esi
	movl	$2, %edi
	call	socket@PLT
	movl	%eax, -24(%rbp)
	.loc 12 61 51
	cmpl	$-1, -24(%rbp)
	sete	%al
	.loc 12 61 5
	testb	%al, %al
	je	.L72
	.loc 12 62 47
	leaq	-81(%rbp), %rax
	movq	%rax, %rdi
	call	_ZNSaIcEC1Ev@PLT
	leaq	-81(%rbp), %rdx
	leaq	-128(%rbp), %rax
	leaq	.LC6(%rip), %rsi
	movq	%rax, %rdi
.LEHB12:
	call	_ZNSt7__cxx1112basic_stringIcSt11char_traitsIcESaIcEEC1IS3_EEPKcRKS3_
.LEHE12:
	.loc 12 62 16 discriminator 1
	leaq	-128(%rbp), %rax
	movq	%rax, %rdi
.LEHB13:
	call	_Z7errexitNSt7__cxx1112basic_stringIcSt11char_traitsIcESaIcEEE
.LEHE13:
	.loc 12 62 47 discriminator 3
	leaq	-128(%rbp), %rax
	movq	%rax, %rdi
	call	_ZNSt7__cxx1112basic_stringIcSt11char_traitsIcESaIcEED1Ev
	.loc 5 525 59 discriminator 3
	leaq	-81(%rbp), %rax
	movq	%rax, %rdi
	call	_ZNSaIcED1Ev@PLT
.L72:
	.loc 12 65 11
	leaq	-736(%rbp), %rax
	movl	$16, %edx
	movl	$0, %esi
	movq	%rax, %rdi
	call	memset@PLT
	.loc 12 67 21
	movw	$2, -736(%rbp)
	.loc 12 68 26
	movl	-708(%rbp), %eax
	movzwl	%ax, %eax
	movl	%eax, %edi
	call	htons@PLT
	.loc 12 68 19
	movw	%ax, -734(%rbp)
	.loc 12 69 26
	movl	$0, -732(%rbp)
	.loc 12 71 12
	leaq	-736(%rbp), %rcx
	movl	-24(%rbp), %eax
	movl	$16, %edx
	movq	%rcx, %rsi
	movl	%eax, %edi
	call	bind@PLT
	.loc 12 71 62
	cmpl	$-1, %eax
	sete	%al
	.loc 12 71 5
	testb	%al, %al
	je	.L73
	.loc 12 72 64
	leaq	-33(%rbp), %rax
	movq	%rax, %rdi
	call	_ZNSaIcEC1Ev@PLT
	.loc 12 72 60
	movl	-708(%rbp), %eax
	cltq
	.loc 12 72 64
	leaq	.LC7(%rip), %rdx
	leaq	(%rax,%rdx), %rcx
	leaq	-33(%rbp), %rdx
	leaq	-80(%rbp), %rax
	movq	%rcx, %rsi
	movq	%rax, %rdi
.LEHB14:
	call	_ZNSt7__cxx1112basic_stringIcSt11char_traitsIcESaIcEEC1IS3_EEPKcRKS3_
.LEHE14:
	.loc 12 72 16 discriminator 1
	leaq	-80(%rbp), %rax
	movq	%rax, %rdi
.LEHB15:
	call	_Z7errexitNSt7__cxx1112basic_stringIcSt11char_traitsIcESaIcEEE
.LEHE15:
	.loc 12 72 64 discriminator 3
	leaq	-80(%rbp), %rax
	movq	%rax, %rdi
	call	_ZNSt7__cxx1112basic_stringIcSt11char_traitsIcESaIcEED1Ev
	.loc 5 525 59 discriminator 3
	leaq	-33(%rbp), %rax
	movq	%rax, %rdi
	call	_ZNSaIcED1Ev@PLT
.L73:
	.loc 12 74 11
	movl	-24(%rbp), %eax
	movl	$4096, %esi
	movl	%eax, %edi
	call	listen@PLT
	.loc 12 78 13
	movl	$10, %edx
	movl	$0, %esi
	leaq	sem_full(%rip), %rdi
	call	sem_init@PLT
	.loc 12 79 10
	movl	$0, %edx
	movl	$0, %esi
	leaq	sem_empty(%rip), %rdi
	call	sem_init@PLT
.LBB56:
	.loc 12 82 22
	movl	$0, -20(%rbp)
.L75:
	.loc 12 82 31 discriminator 3
	cmpl	$9, -20(%rbp)
	ja	.L74
	.loc 12 83 23 discriminator 2
	leaq	-816(%rbp), %rdx
	movl	-20(%rbp), %eax
	salq	$3, %rax
	addq	%rdx, %rax
	movl	$0, %ecx
	leaq	_Z13worker_threadPv(%rip), %rdx
	movl	$0, %esi
	movq	%rax, %rdi
	call	pthread_create@PLT
	.loc 12 82 5 discriminator 2
	addl	$1, -20(%rbp)
	jmp	.L75
.L74:
.LBE56:
.LBB57:
.LBB58:
	.loc 12 88 21
	leaq	sem_full(%rip), %rdi
.LEHB16:
	call	sem_wait@PLT
	.loc 12 92 34
	movl	-24(%rbp), %eax
	movl	$0, %edx
	movl	$0, %esi
	movl	%eax, %edi
	call	accept@PLT
	.loc 12 92 26
	movl	%eax, -820(%rbp)
	movl	-820(%rbp), %eax
	.loc 12 92 50
	cmpl	$-1, %eax
	sete	%al
	.loc 12 92 13
	testb	%al, %al
	je	.L76
	.loc 12 93 23
	movl	$8, %edi
	call	__cxa_allocate_exception@PLT
	.loc 12 93 17
	leaq	.LC8(%rip), %rdx
	movq	%rdx, (%rax)
	.loc 12 93 23
	movl	$0, %edx
	leaq	_ZTIPKc(%rip), %rsi
	movq	%rax, %rdi
	call	__cxa_throw@PLT
.L76:
	.loc 12 96 31
	leaq	mutex(%rip), %rdi
	call	pthread_mutex_lock@PLT
	.loc 12 98 30
	leaq	-820(%rbp), %rax
	movq	%rax, %rsi
	leaq	global_queue(%rip), %rdi
	call	_ZNSt5queueIiSt5dequeIiSaIiEEE4pushERKi
.LEHE16:
	.loc 12 99 33
	leaq	mutex(%rip), %rdi
	call	pthread_mutex_unlock@PLT
	.loc 12 101 21
	leaq	sem_empty(%rip), %rdi
	call	sem_post@PLT
.LBE58:
.LBE57:
	.loc 12 107 5
	jmp	.L74
.L88:
	movq	%rax, %rbx
	leaq	-129(%rbp), %rax
	movq	%rax, %rdi
	call	_ZNSaIcED1Ev@PLT
	movq	%rbx, %rax
	movq	%rax, %rdi
.LEHB17:
	call	_Unwind_Resume@PLT
.LEHE17:
.L92:
	.loc 12 62 47
	movq	%rax, %rbx
	leaq	-128(%rbp), %rax
	movq	%rax, %rdi
	call	_ZNSt7__cxx1112basic_stringIcSt11char_traitsIcESaIcEED1Ev
	jmp	.L79
.L91:
	.loc 5 525 59
	movq	%rax, %rbx
.L79:
	leaq	-81(%rbp), %rax
	movq	%rax, %rdi
	call	_ZNSaIcED1Ev@PLT
	jmp	.L80
.L94:
	.loc 12 72 64
	movq	%rax, %rbx
	leaq	-80(%rbp), %rax
	movq	%rax, %rdi
	call	_ZNSt7__cxx1112basic_stringIcSt11char_traitsIcESaIcEED1Ev
	jmp	.L82
.L93:
	.loc 5 525 59
	movq	%rax, %rbx
.L82:
	leaq	-33(%rbp), %rax
	movq	%rax, %rdi
	call	_ZNSaIcED1Ev@PLT
	jmp	.L80
.L95:
	.loc 12 103 9
	cmpq	$1, %rdx
	je	.L84
	movq	%rax, %rbx
	jmp	.L80
.L84:
.LBB60:
.LBB59:
	.loc 12 103 27 discriminator 1
	movq	%rax, %rdi
	call	__cxa_begin_catch@PLT
	movq	%rax, -32(%rbp)
	.loc 12 104 37 discriminator 1
	movq	-32(%rbp), %rax
	movq	%rax, %rsi
	leaq	_ZSt4cerr(%rip), %rdi
.LEHB18:
	call	_ZStlsISt11char_traitsIcEERSt13basic_ostreamIcT_ES5_PKc@PLT
	movl	$10, %esi
	movq	%rax, %rdi
	call	_ZStlsISt11char_traitsIcEERSt13basic_ostreamIcT_ES5_c@PLT
.LEHE18:
	.loc 12 105 21
	leaq	sem_full(%rip), %rdi
	call	sem_post@PLT
	.loc 12 103 27
	call	__cxa_end_catch@PLT
	jmp	.L74
.L96:
	movq	%rax, %rbx
	call	__cxa_end_catch@PLT
	jmp	.L80
.L90:
.LBE59:
.LBE60:
	.loc 12 57 34
	movq	%rax, %rbx
.L80:
	leaq	-704(%rbp), %rax
	movq	%rax, %rdi
	call	_ZNSt14basic_ifstreamIcSt11char_traitsIcEED1Ev@PLT
	jmp	.L87
.L89:
	.loc 12 54 41
	movq	%rax, %rbx
.L87:
	leaq	-176(%rbp), %rax
	movq	%rax, %rdi
	call	_ZNSt7__cxx1112basic_stringIcSt11char_traitsIcESaIcEED1Ev
	movq	%rbx, %rax
	movq	%rax, %rdi
.LEHB19:
	call	_Unwind_Resume@PLT
.LEHE19:
	.cfi_endproc
.LFE4141:
	.section	.gcc_except_table,"a",@progbits
	.align 4
.LLSDA4141:
	.byte	0xff
	.byte	0x9b
	.uleb128 .LLSDATT4141-.LLSDATTD4141
.LLSDATTD4141:
	.byte	0x1
	.uleb128 .LLSDACSE4141-.LLSDACSB4141
.LLSDACSB4141:
	.uleb128 .LEHB8-.LFB4141
	.uleb128 .LEHE8-.LEHB8
	.uleb128 0
	.uleb128 0
	.uleb128 .LEHB9-.LFB4141
	.uleb128 .LEHE9-.LEHB9
	.uleb128 .L88-.LFB4141
	.uleb128 0
	.uleb128 .LEHB10-.LFB4141
	.uleb128 .LEHE10-.LEHB10
	.uleb128 .L89-.LFB4141
	.uleb128 0
	.uleb128 .LEHB11-.LFB4141
	.uleb128 .LEHE11-.LEHB11
	.uleb128 .L90-.LFB4141
	.uleb128 0
	.uleb128 .LEHB12-.LFB4141
	.uleb128 .LEHE12-.LEHB12
	.uleb128 .L91-.LFB4141
	.uleb128 0
	.uleb128 .LEHB13-.LFB4141
	.uleb128 .LEHE13-.LEHB13
	.uleb128 .L92-.LFB4141
	.uleb128 0
	.uleb128 .LEHB14-.LFB4141
	.uleb128 .LEHE14-.LEHB14
	.uleb128 .L93-.LFB4141
	.uleb128 0
	.uleb128 .LEHB15-.LFB4141
	.uleb128 .LEHE15-.LEHB15
	.uleb128 .L94-.LFB4141
	.uleb128 0
	.uleb128 .LEHB16-.LFB4141
	.uleb128 .LEHE16-.LEHB16
	.uleb128 .L95-.LFB4141
	.uleb128 0x3
	.uleb128 .LEHB17-.LFB4141
	.uleb128 .LEHE17-.LEHB17
	.uleb128 0
	.uleb128 0
	.uleb128 .LEHB18-.LFB4141
	.uleb128 .LEHE18-.LEHB18
	.uleb128 .L96-.LFB4141
	.uleb128 0
	.uleb128 .LEHB19-.LFB4141
	.uleb128 .LEHE19-.LEHB19
	.uleb128 0
	.uleb128 0
.LLSDACSE4141:
	.byte	0
	.byte	0
	.byte	0x1
	.byte	0x7d
	.align 4
	.long	DW.ref._ZTIPKc-.
.LLSDATT4141:
	.text
	.size	main, .-main
	.globl	_Z7errexitNSt7__cxx1112basic_stringIcSt11char_traitsIcESaIcEEE
	.type	_Z7errexitNSt7__cxx1112basic_stringIcSt11char_traitsIcESaIcEEE, @function
_Z7errexitNSt7__cxx1112basic_stringIcSt11char_traitsIcESaIcEEE:
.LFB4142:
	.loc 12 112 41
	.cfi_startproc
	pushq	%rbp
	.cfi_def_cfa_offset 16
	.cfi_offset 6, -16
	movq	%rsp, %rbp
	.cfi_def_cfa_register 6
	subq	$16, %rsp
	movq	%rdi, -8(%rbp)
	.loc 12 113 29
	movq	-8(%rbp), %rax
	movq	%rax, %rsi
	leaq	_ZSt4cerr(%rip), %rdi
	call	_ZStlsIcSt11char_traitsIcESaIcEERSt13basic_ostreamIT_T0_ES7_RKNSt7__cxx1112basic_stringIS4_S5_T1_EE@PLT
	movl	$10, %esi
	movq	%rax, %rdi
	call	_ZStlsISt11char_traitsIcEERSt13basic_ostreamIcT_ES5_c@PLT
	.loc 12 114 9
	movl	$1, %edi
	call	exit@PLT
	.cfi_endproc
.LFE4142:
	.size	_Z7errexitNSt7__cxx1112basic_stringIcSt11char_traitsIcESaIcEEE, .-_Z7errexitNSt7__cxx1112basic_stringIcSt11char_traitsIcESaIcEEE
	.globl	_Z13worker_threadPv
	.type	_Z13worker_threadPv, @function
_Z13worker_threadPv:
.LFB4143:
	.loc 12 119 32
	.cfi_startproc
	pushq	%rbp
	.cfi_def_cfa_offset 16
	.cfi_offset 6, -16
	movq	%rsp, %rbp
	.cfi_def_cfa_register 6
	subq	$32, %rsp
	movq	%rdi, -24(%rbp)
.L101:
.LBB61:
	.loc 12 121 11
	leaq	sem_empty(%rip), %rdi
	call	sem_wait@PLT
	.loc 12 122 13
	movl	$-1, -4(%rbp)
	.loc 12 124 21
	leaq	mutex(%rip), %rdi
	call	pthread_mutex_lock@PLT
	.loc 12 126 31
	leaq	global_queue(%rip), %rdi
	call	_ZNKSt5queueIiSt5dequeIiSaIiEEE5emptyEv
	.loc 12 126 12
	xorl	$1, %eax
	.loc 12 126 9
	testb	%al, %al
	je	.L99
	.loc 12 127 39
	leaq	global_queue(%rip), %rdi
	call	_ZNSt5queueIiSt5dequeIiSaIiEEE5frontEv
	.loc 12 127 18
	movl	(%rax), %eax
	movl	%eax, -4(%rbp)
	.loc 12 128 29
	leaq	global_queue(%rip), %rdi
	call	_ZNSt5queueIiSt5dequeIiSaIiEEE3popEv
.L99:
	.loc 12 130 23
	leaq	mutex(%rip), %rdi
	call	pthread_mutex_unlock@PLT
	.loc 12 132 3
	cmpl	$-1, -4(%rbp)
	je	.L100
	.loc 12 133 17
	movl	-4(%rbp), %eax
	movl	%eax, %edi
	call	_Z13handleRequesti
.L100:
	.loc 12 135 11
	leaq	sem_full(%rip), %rdi
	call	sem_post@PLT
.LBE61:
	.loc 12 136 2
	jmp	.L101
	.cfi_endproc
.LFE4143:
	.size	_Z13worker_threadPv, .-_Z13worker_threadPv
	.section	.rodata
.LC9:
	.string	""
.LC10:
	.string	"CLOSE"
	.align 8
.LC11:
	.string	"Failed to send multicast message to ID: "
	.align 8
.LC12:
	.string	"Error in closing the socket file descriptor."
	.align 8
.LC13:
	.string	"Unknown exception was thrown.\n"
	.text
	.globl	_Z13handleRequesti
	.type	_Z13handleRequesti, @function
_Z13handleRequesti:
.LFB4144:
	.loc 12 140 36
	.cfi_startproc
	.cfi_personality 0x9b,DW.ref.__gxx_personality_v0
	.cfi_lsda 0x1b,.LLSDA4144
	pushq	%rbp
	.cfi_def_cfa_offset 16
	.cfi_offset 6, -16
	movq	%rsp, %rbp
	.cfi_def_cfa_register 6
	pushq	%r12
	pushq	%rbx
	subq	$1280, %rsp
	.cfi_offset 12, -24
	.cfi_offset 3, -32
	movl	%edi, -1284(%rbp)
	.loc 12 143 11
	leaq	-1152(%rbp), %rax
	movl	$1000, %edx
	movl	$0, %esi
	movq	%rax, %rdi
	call	memset@PLT
	.loc 12 145 9
	leaq	-1152(%rbp), %rsi
	movl	-1284(%rbp), %eax
	movl	$0, %ecx
	movl	$1000, %edx
	movl	%eax, %edi
.LEHB20:
	call	recv@PLT
	.loc 12 146 29
	leaq	-1152(%rbp), %rax
	movq	%rax, %rsi
	leaq	_ZSt4cout(%rip), %rdi
	call	_ZStlsISt11char_traitsIcEERSt13basic_ostreamIcT_ES5_PKc@PLT
	movl	$10, %esi
	movq	%rax, %rdi
	call	_ZStlsISt11char_traitsIcEERSt13basic_ostreamIcT_ES5_c@PLT
.LEHE20:
	.loc 12 148 9
	movl	$-1, -24(%rbp)
	.loc 12 149 27
	leaq	-146(%rbp), %rax
	movq	%rax, %rdi
	call	_ZNSaIcEC1Ev@PLT
	leaq	-146(%rbp), %rdx
	leaq	-1184(%rbp), %rax
	leaq	.LC9(%rip), %rsi
	movq	%rax, %rdi
.LEHB21:
	call	_ZNSt7__cxx1112basic_stringIcSt11char_traitsIcESaIcEEC1IS3_EEPKcRKS3_
.LEHE21:
	leaq	-146(%rbp), %rax
	movq	%rax, %rdi
	call	_ZNSaIcED1Ev@PLT
.LBB62:
	.loc 12 152 22
	movl	$0, -20(%rbp)
.L104:
	.loc 12 152 38 discriminator 1
	movl	-20(%rbp), %eax
	movzbl	-1152(%rbp,%rax), %eax
	.loc 12 152 47 discriminator 1
	cmpb	$32, %al
	je	.L103
	.loc 12 152 59 discriminator 2
	movl	-20(%rbp), %eax
	movzbl	-1152(%rbp,%rax), %eax
	.loc 12 152 47 discriminator 2
	testb	%al, %al
	je	.L103
	.loc 12 153 29
	movl	-20(%rbp), %eax
	movzbl	-1152(%rbp,%rax), %eax
	movsbl	%al, %edx
	leaq	-1184(%rbp), %rax
	movl	%edx, %esi
	movq	%rax, %rdi
.LEHB22:
	call	_ZNSt7__cxx1112basic_stringIcSt11char_traitsIcESaIcEEpLEc
	.loc 12 152 5 discriminator 3
	addl	$1, -20(%rbp)
	jmp	.L104
.L103:
.LBE62:
	.loc 12 155 27
	leaq	-1184(%rbp), %rax
	movq	%rax, %rsi
	leaq	_Z5codesB5cxx11(%rip), %rdi
	call	_ZNSt13unordered_mapINSt7__cxx1112basic_stringIcSt11char_traitsIcESaIcEEEiSt4hashIS5_ESt8equal_toIS5_ESaISt4pairIKS5_iEEEixERSB_
.LEHE22:
	.loc 12 155 12
	movl	(%rax), %eax
	movl	%eax, -24(%rbp)
.LBB63:
	.loc 12 159 34
	leaq	-145(%rbp), %rax
	movq	%rax, %rdi
	call	_ZNSaIcEC1Ev@PLT
	leaq	-145(%rbp), %rdx
	leaq	-1152(%rbp), %rcx
	leaq	-1280(%rbp), %rax
	movq	%rcx, %rsi
	movq	%rax, %rdi
.LEHB23:
	call	_ZNSt7__cxx1112basic_stringIcSt11char_traitsIcESaIcEEC1IS3_EEPKcRKS3_
.LEHE23:
	leaq	-145(%rbp), %rax
	movq	%rax, %rdi
	call	_ZNSaIcED1Ev@PLT
	cmpl	$5, -24(%rbp)
	ja	.L105
	movl	-24(%rbp), %eax
	leaq	0(,%rax,4), %rdx
	leaq	.L107(%rip), %rax
	movl	(%rdx,%rax), %eax
	cltq
	leaq	.L107(%rip), %rdx
	addq	%rdx, %rax
	jmp	*%rax
	.section	.rodata
	.align 4
	.align 4
.L107:
	.long	.L105-.L107
	.long	.L111-.L107
	.long	.L110-.L107
	.long	.L109-.L107
	.long	.L105-.L107
	.long	.L106-.L107
	.text
.L111:
.LBB64:
.LBB65:
	.loc 12 163 36
	leaq	-1280(%rbp), %rax
	movq	%rax, %rdi
.LEHB24:
	call	_Z19registerParticipantRKNSt7__cxx1112basic_stringIcSt11char_traitsIcESaIcEEE
	.loc 12 164 30
	call	_Z13printPartInfov
	.loc 12 165 17
	jmp	.L105
.L110:
.LBB66:
	.loc 12 169 67
	leaq	-1280(%rbp), %rax
	movq	%rax, %rdi
	call	_ZNKSt7__cxx1112basic_stringIcSt11char_traitsIcESaIcEE6lengthEv
	movq	%rax, %rdx
	leaq	-144(%rbp), %rax
	leaq	-1280(%rbp), %rsi
	movq	%rdx, %rcx
	movl	$11, %edx
	movq	%rax, %rdi
	call	_ZNKSt7__cxx1112basic_stringIcSt11char_traitsIcESaIcEE6substrEmm
.LEHE24:
	.loc 12 169 35 discriminator 1
	leaq	-144(%rbp), %rax
	movl	$10, %edx
	movl	$0, %esi
	movq	%rax, %rdi
.LEHB25:
	call	_ZNSt7__cxx114stoiERKNS_12basic_stringIcSt11char_traitsIcESaIcEEEPmi
.LEHE25:
	.loc 12 169 68 discriminator 1
	movl	%eax, -1188(%rbp)
	.loc 12 169 48 discriminator 1
	leaq	-144(%rbp), %rax
	movq	%rax, %rdi
	call	_ZNSt7__cxx1112basic_stringIcSt11char_traitsIcESaIcEED1Ev
	.loc 12 170 41 discriminator 1
	leaq	-97(%rbp), %rax
	movq	%rax, %rdi
	call	_ZNSaIcEC1Ev@PLT
	leaq	-97(%rbp), %rdx
	leaq	-1248(%rbp), %rax
	leaq	.LC10(%rip), %rsi
	movq	%rax, %rdi
.LEHB26:
	call	_ZNSt7__cxx1112basic_stringIcSt11char_traitsIcESaIcEEC1IS3_EEPKcRKS3_
.LEHE26:
	leaq	-97(%rbp), %rax
	movq	%rax, %rdi
	call	_ZNSaIcED1Ev@PLT
	.loc 12 172 21
	leaq	-1248(%rbp), %rax
	movq	%rax, %rdi
	call	_ZNKSt7__cxx1112basic_stringIcSt11char_traitsIcESaIcEE6lengthEv
	movq	%rax, %r12
	.loc 12 172 63
	leaq	-1248(%rbp), %rax
	movq	%rax, %rdi
	call	_ZNKSt7__cxx1112basic_stringIcSt11char_traitsIcESaIcEE5c_strEv
	movq	%rax, %rbx
	.loc 12 172 37
	leaq	-1188(%rbp), %rax
	movq	%rax, %rsi
	leaq	client_table(%rip), %rdi
.LEHB27:
	call	_ZNSt13unordered_mapIi16participant_infoSt4hashIiESt8equal_toIiESaISt4pairIKiS0_EEEixERS6_
	.loc 12 172 21
	movl	40(%rax), %eax
	movl	$0, %ecx
	movq	%r12, %rdx
	movq	%rbx, %rsi
	movl	%eax, %edi
	call	send@PLT
	.loc 12 173 38
	leaq	-1188(%rbp), %rax
	movq	%rax, %rsi
	leaq	client_table(%rip), %rdi
	call	_ZNSt13unordered_mapIi16participant_infoSt4hashIiESt8equal_toIiESaISt4pairIKiS0_EEEixERS6_
	.loc 12 173 22
	movl	40(%rax), %eax
	movl	%eax, %edi
	call	close@PLT
	.loc 12 174 35
	leaq	-1188(%rbp), %rax
	movq	%rax, %rsi
	leaq	client_table(%rip), %rdi
	call	_ZNSt13unordered_mapIi16participant_infoSt4hashIiESt8equal_toIiESaISt4pairIKiS0_EEE5eraseERS6_
.LEHE27:
	.loc 12 176 17
	nop
	.loc 12 170 41
	leaq	-1248(%rbp), %rax
	movq	%rax, %rdi
	call	_ZNSt7__cxx1112basic_stringIcSt11char_traitsIcESaIcEED1Ev
	jmp	.L105
.L109:
.LBE66:
.LBB67:
	.loc 12 180 67
	leaq	-1280(%rbp), %rax
	movq	%rax, %rdi
	call	_ZNKSt7__cxx1112basic_stringIcSt11char_traitsIcESaIcEE6lengthEv
	movq	%rax, %rdx
	leaq	-96(%rbp), %rax
	leaq	-1280(%rbp), %rsi
	movq	%rdx, %rcx
	movl	$11, %edx
	movq	%rax, %rdi
.LEHB28:
	call	_ZNKSt7__cxx1112basic_stringIcSt11char_traitsIcESaIcEE6substrEmm
.LEHE28:
	.loc 12 180 35 discriminator 1
	leaq	-96(%rbp), %rax
	movl	$10, %edx
	movl	$0, %esi
	movq	%rax, %rdi
.LEHB29:
	call	_ZNSt7__cxx114stoiERKNS_12basic_stringIcSt11char_traitsIcESaIcEEEPmi
.LEHE29:
	.loc 12 180 68 discriminator 1
	movl	%eax, -1192(%rbp)
	.loc 12 180 48 discriminator 1
	leaq	-96(%rbp), %rax
	movq	%rax, %rdi
	call	_ZNSt7__cxx1112basic_stringIcSt11char_traitsIcESaIcEED1Ev
	.loc 12 181 41 discriminator 1
	leaq	-57(%rbp), %rax
	movq	%rax, %rdi
	call	_ZNSaIcEC1Ev@PLT
	leaq	-57(%rbp), %rdx
	leaq	-1248(%rbp), %rax
	leaq	.LC10(%rip), %rsi
	movq	%rax, %rdi
.LEHB30:
	call	_ZNSt7__cxx1112basic_stringIcSt11char_traitsIcESaIcEEC1IS3_EEPKcRKS3_
.LEHE30:
	leaq	-57(%rbp), %rax
	movq	%rax, %rdi
	call	_ZNSaIcED1Ev@PLT
	.loc 12 183 21
	leaq	-1248(%rbp), %rax
	movq	%rax, %rdi
	call	_ZNKSt7__cxx1112basic_stringIcSt11char_traitsIcESaIcEE6lengthEv
	movq	%rax, %r12
	.loc 12 183 63
	leaq	-1248(%rbp), %rax
	movq	%rax, %rdi
	call	_ZNKSt7__cxx1112basic_stringIcSt11char_traitsIcESaIcEE5c_strEv
	movq	%rax, %rbx
	.loc 12 183 37
	leaq	-1192(%rbp), %rax
	movq	%rax, %rsi
	leaq	client_table(%rip), %rdi
.LEHB31:
	call	_ZNSt13unordered_mapIi16participant_infoSt4hashIiESt8equal_toIiESaISt4pairIKiS0_EEEixERS6_
	.loc 12 183 21
	movl	40(%rax), %eax
	movl	$0, %ecx
	movq	%r12, %rdx
	movq	%rbx, %rsi
	movl	%eax, %edi
	call	send@PLT
	.loc 12 184 38
	leaq	-1192(%rbp), %rax
	movq	%rax, %rsi
	leaq	client_table(%rip), %rdi
	call	_ZNSt13unordered_mapIi16participant_infoSt4hashIiESt8equal_toIiESaISt4pairIKiS0_EEEixERS6_
	.loc 12 184 22
	movl	40(%rax), %eax
	movl	%eax, %edi
	call	close@PLT
	.loc 12 185 32
	leaq	-1192(%rbp), %rax
	movq	%rax, %rsi
	leaq	client_table(%rip), %rdi
	call	_ZNSt13unordered_mapIi16participant_infoSt4hashIiESt8equal_toIiESaISt4pairIKiS0_EEEixERS6_
.LEHE31:
	.loc 12 185 41
	movb	$0, 44(%rax)
	.loc 12 186 17
	nop
	.loc 12 181 41
	leaq	-1248(%rbp), %rax
	movq	%rax, %rdi
	call	_ZNSt7__cxx1112basic_stringIcSt11char_traitsIcESaIcEED1Ev
	jmp	.L105
.L106:
.LBE67:
.LBB68:
	.loc 12 194 85
	leaq	-1280(%rbp), %rax
	movq	%rax, %rdi
	call	_ZNKSt7__cxx1112basic_stringIcSt11char_traitsIcESaIcEE6lengthEv
	movq	%rax, %rdx
	leaq	-1248(%rbp), %rax
	leaq	-1280(%rbp), %rsi
	movq	%rdx, %rcx
	movl	$6, %edx
	movq	%rax, %rdi
.LEHB32:
	call	_ZNKSt7__cxx1112basic_stringIcSt11char_traitsIcESaIcEE6substrEmm
.LEHE32:
.LBB69:
	.loc 12 196 31
	leaq	client_table(%rip), %rax
	movq	%rax, -32(%rbp)
	movq	-32(%rbp), %rax
	movq	%rax, %rdi
	call	_ZNSt13unordered_mapIi16participant_infoSt4hashIiESt8equal_toIiESaISt4pairIKiS0_EEE5beginEv
	movq	%rax, -1200(%rbp)
	movq	-32(%rbp), %rax
	movq	%rax, %rdi
	call	_ZNSt13unordered_mapIi16participant_infoSt4hashIiESt8equal_toIiESaISt4pairIKiS0_EEE3endEv
	movq	%rax, -1208(%rbp)
.L115:
	.loc 12 196 31 is_stmt 0 discriminator 1
	leaq	-1208(%rbp), %rdx
	leaq	-1200(%rbp), %rax
	movq	%rdx, %rsi
	movq	%rax, %rdi
	call	_ZNSt8__detailneISt4pairIKi16participant_infoELb0EEEbRKNS_19_Node_iterator_baseIT_XT0_EEES9_
	testb	%al, %al
	je	.L154
	.loc 12 196 31 discriminator 2
	leaq	-1200(%rbp), %rax
	movq	%rax, %rdi
	call	_ZNKSt8__detail14_Node_iteratorISt4pairIKi16participant_infoELb0ELb0EEdeEv
	movq	%rax, -40(%rbp)
	.loc 12 197 33 is_stmt 1 discriminator 2
	movq	-40(%rbp), %rax
	movzbl	52(%rax), %eax
	.loc 12 197 21 discriminator 2
	testb	%al, %al
	je	.L113
	.loc 12 198 32
	leaq	-1248(%rbp), %rax
	movq	%rax, %rdi
	call	_ZNKSt7__cxx1112basic_stringIcSt11char_traitsIcESaIcEE6lengthEv
	movq	%rax, %rbx
	.loc 12 198 80
	leaq	-1248(%rbp), %rax
	movq	%rax, %rdi
	call	_ZNKSt7__cxx1112basic_stringIcSt11char_traitsIcESaIcEE5c_strEv
	movq	%rax, %rsi
	.loc 12 198 32
	movq	-40(%rbp), %rax
	movl	48(%rax), %eax
	movl	$0, %ecx
	movq	%rbx, %rdx
	movl	%eax, %edi
.LEHB33:
	call	send@PLT
	.loc 12 198 115
	cmpq	$-1, %rax
	sete	%al
	.loc 12 198 25
	testb	%al, %al
	je	.L114
	.loc 12 199 42
	leaq	.LC11(%rip), %rsi
	leaq	_ZSt4cerr(%rip), %rdi
	call	_ZStlsISt11char_traitsIcEERSt13basic_ostreamIcT_ES5_PKc@PLT
	movq	%rax, %rdx
	.loc 12 199 90
	movq	-40(%rbp), %rax
	movl	(%rax), %eax
	.loc 12 199 99
	movl	%eax, %esi
	movq	%rdx, %rdi
	call	_ZNSolsEi@PLT
	.loc 12 199 99 is_stmt 0 discriminator 1
	movl	$10, %esi
	movq	%rax, %rdi
	call	_ZStlsISt11char_traitsIcEERSt13basic_ostreamIcT_ES5_c@PLT
	.loc 12 200 29 is_stmt 1
	jmp	.L151
.L113:
	.loc 12 204 58
	movq	-40(%rbp), %rax
	leaq	56(%rax), %rdx
	leaq	-1248(%rbp), %rax
	movq	%rax, %rsi
	movq	%rdx, %rdi
	call	_ZNSt5queueINSt7__cxx1112basic_stringIcSt11char_traitsIcESaIcEEESt5dequeIS5_SaIS5_EEE4pushERKS5_
.LEHE33:
.L114:
	.loc 12 196 31 discriminator 3
	leaq	-1200(%rbp), %rax
	movq	%rax, %rdi
	call	_ZNSt8__detail14_Node_iteratorISt4pairIKi16participant_infoELb0ELb0EEppEv
	.loc 12 196 17 discriminator 3
	jmp	.L115
.L151:
.L154:
.LBE69:
	.loc 12 208 17
	nop
	.loc 12 194 85
	leaq	-1248(%rbp), %rax
	movq	%rax, %rdi
	call	_ZNSt7__cxx1112basic_stringIcSt11char_traitsIcESaIcEED1Ev
.L105:
.LBE68:
.LBE65:
.LBE64:
	.loc 12 212 17
	movl	-1284(%rbp), %eax
	movl	%eax, %edi
.LEHB34:
	call	close@PLT
	.loc 12 212 30
	cmpl	$-1, %eax
	sete	%al
	.loc 12 212 9
	testb	%al, %al
	je	.L116
	.loc 12 213 19
	movl	$8, %edi
	call	__cxa_allocate_exception@PLT
	.loc 12 213 13
	leaq	.LC12(%rip), %rdx
	movq	%rdx, (%rax)
	.loc 12 213 19
	movl	$0, %edx
	leaq	_ZTIPKc(%rip), %rsi
	movq	%rax, %rdi
	call	__cxa_throw@PLT
.LEHE34:
.L116:
	.loc 12 159 34
	leaq	-1280(%rbp), %rax
	movq	%rax, %rdi
	call	_ZNSt7__cxx1112basic_stringIcSt11char_traitsIcESaIcEED1Ev
.L131:
.LBE63:
	.loc 12 149 27
	leaq	-1184(%rbp), %rax
	movq	%rax, %rdi
	call	_ZNSt7__cxx1112basic_stringIcSt11char_traitsIcESaIcEED1Ev
	.loc 12 224 1
	jmp	.L152
.L136:
	movq	%rax, %rbx
	leaq	-146(%rbp), %rax
	movq	%rax, %rdi
	call	_ZNSaIcED1Ev@PLT
	movq	%rbx, %rax
	movq	%rax, %rdi
.LEHB35:
	call	_Unwind_Resume@PLT
.LEHE35:
.L138:
.LBB75:
	movq	%rax, %r12
	movq	%rdx, %rbx
	leaq	-145(%rbp), %rax
	movq	%rax, %rdi
	call	_ZNSaIcED1Ev@PLT
	movq	%r12, %rax
	movq	%rbx, %rdx
	jmp	.L119
.L140:
.LBB74:
.LBB73:
.LBB70:
	.loc 12 169 48
	movq	%rax, %r12
	movq	%rdx, %rbx
	leaq	-144(%rbp), %rax
	movq	%rax, %rdi
	call	_ZNSt7__cxx1112basic_stringIcSt11char_traitsIcESaIcEED1Ev
	jmp	.L121
.L141:
	movq	%rax, %r12
	movq	%rdx, %rbx
	leaq	-97(%rbp), %rax
	movq	%rax, %rdi
	call	_ZNSaIcED1Ev@PLT
	jmp	.L121
.L142:
	.loc 12 170 41
	movq	%rax, %r12
	movq	%rdx, %rbx
	leaq	-1248(%rbp), %rax
	movq	%rax, %rdi
	call	_ZNSt7__cxx1112basic_stringIcSt11char_traitsIcESaIcEED1Ev
	jmp	.L121
.L143:
.LBE70:
.LBB71:
	.loc 12 180 48
	movq	%rax, %r12
	movq	%rdx, %rbx
	leaq	-96(%rbp), %rax
	movq	%rax, %rdi
	call	_ZNSt7__cxx1112basic_stringIcSt11char_traitsIcESaIcEED1Ev
	jmp	.L121
.L144:
	movq	%rax, %r12
	movq	%rdx, %rbx
	leaq	-57(%rbp), %rax
	movq	%rax, %rdi
	call	_ZNSaIcED1Ev@PLT
	jmp	.L121
.L145:
	.loc 12 181 41
	movq	%rax, %r12
	movq	%rdx, %rbx
	leaq	-1248(%rbp), %rax
	movq	%rax, %rdi
	call	_ZNSt7__cxx1112basic_stringIcSt11char_traitsIcESaIcEED1Ev
	jmp	.L121
.L146:
.LBE71:
.LBB72:
	.loc 12 194 85
	movq	%rax, %r12
	movq	%rdx, %rbx
	leaq	-1248(%rbp), %rax
	movq	%rax, %rdi
	call	_ZNSt7__cxx1112basic_stringIcSt11char_traitsIcESaIcEED1Ev
	jmp	.L121
.L139:
.LBE72:
.LBE73:
.LBE74:
	.loc 12 159 34
	movq	%rax, %r12
	movq	%rdx, %rbx
.L121:
	leaq	-1280(%rbp), %rax
	movq	%rax, %rdi
	call	_ZNSt7__cxx1112basic_stringIcSt11char_traitsIcESaIcEED1Ev
	movq	%r12, %rax
	movq	%rbx, %rdx
.L119:
.LBE75:
	.loc 12 215 5
	cmpq	$1, %rdx
	je	.L128
	cmpq	$2, %rdx
	je	.L129
	jmp	.L153
.L128:
.LBB76:
	.loc 12 215 23 discriminator 1
	movq	%rax, %rdi
	call	__cxa_begin_catch@PLT
	movq	%rax, -56(%rbp)
	.loc 12 216 33 discriminator 1
	movq	-56(%rbp), %rax
	movq	%rax, %rsi
	leaq	_ZSt4cerr(%rip), %rdi
.LEHB36:
	call	_ZStlsISt11char_traitsIcEERSt13basic_ostreamIcT_ES5_PKc@PLT
	movl	$10, %esi
	movq	%rax, %rdi
	call	_ZStlsISt11char_traitsIcEERSt13basic_ostreamIcT_ES5_c@PLT
.LEHE36:
	.loc 12 215 23
	call	__cxa_end_catch@PLT
	jmp	.L131
.L129:
.LBE76:
.LBB77:
	.loc 12 218 33
	movq	%rax, %rdi
	call	__cxa_begin_catch@PLT
	movq	%rax, -48(%rbp)
	.loc 12 219 30
	movq	-48(%rbp), %rax
	movq	(%rax), %rax
	addq	$16, %rax
	movq	(%rax), %rdx
	.loc 12 219 35
	movq	-48(%rbp), %rax
	movq	%rax, %rdi
	call	*%rdx
.LVL0:
	movq	%rax, %rsi
	leaq	_ZSt4cerr(%rip), %rdi
.LEHB37:
	call	_ZStlsISt11char_traitsIcEERSt13basic_ostreamIcT_ES5_PKc@PLT
	movl	$10, %esi
	movq	%rax, %rdi
	call	_ZStlsISt11char_traitsIcEERSt13basic_ostreamIcT_ES5_c@PLT
.LEHE37:
	.loc 12 218 33
	call	__cxa_end_catch@PLT
	jmp	.L131
.L153:
.LBE77:
	.loc 12 221 11
	movq	%rax, %rdi
	call	__cxa_begin_catch@PLT
	.loc 12 222 22
	leaq	.LC13(%rip), %rsi
	leaq	_ZSt4cerr(%rip), %rdi
.LEHB38:
	call	_ZStlsISt11char_traitsIcEERSt13basic_ostreamIcT_ES5_PKc@PLT
.LEHE38:
.LEHB39:
	.loc 12 221 11
	call	__cxa_end_catch@PLT
.LEHE39:
	jmp	.L131
.L147:
.LBB78:
	.loc 12 215 23
	movq	%rax, %rbx
	call	__cxa_end_catch@PLT
	jmp	.L133
.L148:
.LBE78:
.LBB79:
	.loc 12 218 33
	movq	%rax, %rbx
	call	__cxa_end_catch@PLT
	jmp	.L133
.L149:
.LBE79:
	.loc 12 221 11
	movq	%rax, %rbx
	call	__cxa_end_catch@PLT
	jmp	.L133
.L137:
	.loc 12 149 27
	movq	%rax, %rbx
.L133:
	leaq	-1184(%rbp), %rax
	movq	%rax, %rdi
	call	_ZNSt7__cxx1112basic_stringIcSt11char_traitsIcESaIcEED1Ev
	movq	%rbx, %rax
	movq	%rax, %rdi
.LEHB40:
	call	_Unwind_Resume@PLT
.LEHE40:
.L152:
	.loc 12 224 1
	addq	$1280, %rsp
	popq	%rbx
	popq	%r12
	popq	%rbp
	.cfi_def_cfa 7, 8
	ret
	.cfi_endproc
.LFE4144:
	.section	.gcc_except_table
	.align 4
.LLSDA4144:
	.byte	0xff
	.byte	0x9b
	.uleb128 .LLSDATT4144-.LLSDATTD4144
.LLSDATTD4144:
	.byte	0x1
	.uleb128 .LLSDACSE4144-.LLSDACSB4144
.LLSDACSB4144:
	.uleb128 .LEHB20-.LFB4144
	.uleb128 .LEHE20-.LEHB20
	.uleb128 0
	.uleb128 0
	.uleb128 .LEHB21-.LFB4144
	.uleb128 .LEHE21-.LEHB21
	.uleb128 .L136-.LFB4144
	.uleb128 0
	.uleb128 .LEHB22-.LFB4144
	.uleb128 .LEHE22-.LEHB22
	.uleb128 .L137-.LFB4144
	.uleb128 0
	.uleb128 .LEHB23-.LFB4144
	.uleb128 .LEHE23-.LEHB23
	.uleb128 .L138-.LFB4144
	.uleb128 0x5
	.uleb128 .LEHB24-.LFB4144
	.uleb128 .LEHE24-.LEHB24
	.uleb128 .L139-.LFB4144
	.uleb128 0x5
	.uleb128 .LEHB25-.LFB4144
	.uleb128 .LEHE25-.LEHB25
	.uleb128 .L140-.LFB4144
	.uleb128 0x5
	.uleb128 .LEHB26-.LFB4144
	.uleb128 .LEHE26-.LEHB26
	.uleb128 .L141-.LFB4144
	.uleb128 0x5
	.uleb128 .LEHB27-.LFB4144
	.uleb128 .LEHE27-.LEHB27
	.uleb128 .L142-.LFB4144
	.uleb128 0x5
	.uleb128 .LEHB28-.LFB4144
	.uleb128 .LEHE28-.LEHB28
	.uleb128 .L139-.LFB4144
	.uleb128 0x5
	.uleb128 .LEHB29-.LFB4144
	.uleb128 .LEHE29-.LEHB29
	.uleb128 .L143-.LFB4144
	.uleb128 0x5
	.uleb128 .LEHB30-.LFB4144
	.uleb128 .LEHE30-.LEHB30
	.uleb128 .L144-.LFB4144
	.uleb128 0x5
	.uleb128 .LEHB31-.LFB4144
	.uleb128 .LEHE31-.LEHB31
	.uleb128 .L145-.LFB4144
	.uleb128 0x5
	.uleb128 .LEHB32-.LFB4144
	.uleb128 .LEHE32-.LEHB32
	.uleb128 .L139-.LFB4144
	.uleb128 0x5
	.uleb128 .LEHB33-.LFB4144
	.uleb128 .LEHE33-.LEHB33
	.uleb128 .L146-.LFB4144
	.uleb128 0x5
	.uleb128 .LEHB34-.LFB4144
	.uleb128 .LEHE34-.LEHB34
	.uleb128 .L139-.LFB4144
	.uleb128 0x5
	.uleb128 .LEHB35-.LFB4144
	.uleb128 .LEHE35-.LEHB35
	.uleb128 0
	.uleb128 0
	.uleb128 .LEHB36-.LFB4144
	.uleb128 .LEHE36-.LEHB36
	.uleb128 .L147-.LFB4144
	.uleb128 0
	.uleb128 .LEHB37-.LFB4144
	.uleb128 .LEHE37-.LEHB37
	.uleb128 .L148-.LFB4144
	.uleb128 0
	.uleb128 .LEHB38-.LFB4144
	.uleb128 .LEHE38-.LEHB38
	.uleb128 .L149-.LFB4144
	.uleb128 0
	.uleb128 .LEHB39-.LFB4144
	.uleb128 .LEHE39-.LEHB39
	.uleb128 .L137-.LFB4144
	.uleb128 0
	.uleb128 .LEHB40-.LFB4144
	.uleb128 .LEHE40-.LEHB40
	.uleb128 0
	.uleb128 0
.LLSDACSE4144:
	.byte	0x3
	.byte	0
	.byte	0x2
	.byte	0x7d
	.byte	0x1
	.byte	0x7d
	.align 4
	.long	0

	.long	DW.ref._ZTISt9exception-.
	.long	DW.ref._ZTIPKc-.
.LLSDATT4144:
	.text
	.size	_Z13handleRequesti, .-_Z13handleRequesti
	.section	.rodata
.LC14:
	.string	"\n"
.LC15:
	.string	"Client Table:\n"
	.align 8
.LC16:
	.string	"____________________________________________\n"
.LC17:
	.string	"Client "
.LC18:
	.string	":\n"
.LC19:
	.string	"\tIP: "
.LC20:
	.string	"\tPort: "
.LC21:
	.string	"\tOnline: "
.LC22:
	.string	"\tMailbox Length: "
.LC23:
	.string	"\n\n"
	.text
	.globl	_Z13printPartInfov
	.type	_Z13printPartInfov, @function
_Z13printPartInfov:
.LFB4145:
	.loc 12 227 22
	.cfi_startproc
	pushq	%rbp
	.cfi_def_cfa_offset 16
	.cfi_offset 6, -16
	movq	%rsp, %rbp
	.cfi_def_cfa_register 6
	pushq	%rbx
	subq	$56, %rsp
	.cfi_offset 3, -24
	.loc 12 228 9
	movl	$1, -20(%rbp)
	.loc 12 229 18
	leaq	.LC14(%rip), %rsi
	leaq	_ZSt4cout(%rip), %rdi
	call	_ZStlsISt11char_traitsIcEERSt13basic_ostreamIcT_ES5_PKc@PLT
	.loc 12 230 18
	leaq	.LC15(%rip), %rsi
	leaq	_ZSt4cout(%rip), %rdi
	call	_ZStlsISt11char_traitsIcEERSt13basic_ostreamIcT_ES5_PKc@PLT
	.loc 12 231 18
	leaq	.LC16(%rip), %rsi
	leaq	_ZSt4cout(%rip), %rdi
	call	_ZStlsISt11char_traitsIcEERSt13basic_ostreamIcT_ES5_PKc@PLT
.LBB80:
	.loc 12 233 24
	leaq	client_table(%rip), %rax
	movq	%rax, -32(%rbp)
	movq	-32(%rbp), %rax
	movq	%rax, %rdi
	call	_ZNSt13unordered_mapIi16participant_infoSt4hashIiESt8equal_toIiESaISt4pairIKiS0_EEE5beginEv
	movq	%rax, -48(%rbp)
	movq	-32(%rbp), %rax
	movq	%rax, %rdi
	call	_ZNSt13unordered_mapIi16participant_infoSt4hashIiESt8equal_toIiESaISt4pairIKiS0_EEE3endEv
	movq	%rax, -56(%rbp)
.L157:
	.loc 12 233 24 is_stmt 0 discriminator 1
	leaq	-56(%rbp), %rdx
	leaq	-48(%rbp), %rax
	movq	%rdx, %rsi
	movq	%rax, %rdi
	call	_ZNSt8__detailneISt4pairIKi16participant_infoELb0EEEbRKNS_19_Node_iterator_baseIT_XT0_EEES9_
	testb	%al, %al
	je	.L156
	.loc 12 233 24 discriminator 2
	leaq	-48(%rbp), %rax
	movq	%rax, %rdi
	call	_ZNKSt8__detail14_Node_iteratorISt4pairIKi16participant_infoELb0ELb0EEdeEv
	movq	%rax, -40(%rbp)
	.loc 12 234 22 is_stmt 1 discriminator 2
	leaq	.LC17(%rip), %rsi
	leaq	_ZSt4cout(%rip), %rdi
	call	_ZStlsISt11char_traitsIcEERSt13basic_ostreamIcT_ES5_PKc@PLT
	movq	%rax, %rdx
	.loc 12 234 40 discriminator 2
	movl	-20(%rbp), %eax
	movl	%eax, %esi
	movq	%rdx, %rdi
	call	_ZNSolsEi@PLT
	leaq	.LC18(%rip), %rsi
	movq	%rax, %rdi
	call	_ZStlsISt11char_traitsIcEERSt13basic_ostreamIcT_ES5_PKc@PLT
	.loc 12 235 54 discriminator 2
	leaq	.LC19(%rip), %rsi
	leaq	_ZSt4cout(%rip), %rdi
	call	_ZStlsISt11char_traitsIcEERSt13basic_ostreamIcT_ES5_PKc@PLT
	movq	%rax, %rdx
	.loc 12 235 43 discriminator 2
	movq	-40(%rbp), %rax
	addq	$16, %rax
	.loc 12 235 54 discriminator 2
	movq	%rax, %rsi
	movq	%rdx, %rdi
	call	_ZStlsIcSt11char_traitsIcESaIcEERSt13basic_ostreamIT_T0_ES7_RKNSt7__cxx1112basic_stringIS4_S5_T1_EE@PLT
	leaq	.LC14(%rip), %rsi
	movq	%rax, %rdi
	call	_ZStlsISt11char_traitsIcEERSt13basic_ostreamIcT_ES5_PKc@PLT
	.loc 12 236 22 discriminator 2
	leaq	.LC20(%rip), %rsi
	leaq	_ZSt4cout(%rip), %rdi
	call	_ZStlsISt11char_traitsIcEERSt13basic_ostreamIcT_ES5_PKc@PLT
	movq	%rax, %rdx
	.loc 12 236 45 discriminator 2
	movq	-40(%rbp), %rax
	movl	8(%rax), %eax
	.loc 12 236 53 discriminator 2
	movl	%eax, %esi
	movq	%rdx, %rdi
	call	_ZNSolsEi@PLT
	leaq	.LC14(%rip), %rsi
	movq	%rax, %rdi
	call	_ZStlsISt11char_traitsIcEERSt13basic_ostreamIcT_ES5_PKc@PLT
	.loc 12 237 22 discriminator 2
	leaq	.LC21(%rip), %rsi
	leaq	_ZSt4cout(%rip), %rdi
	call	_ZStlsISt11char_traitsIcEERSt13basic_ostreamIcT_ES5_PKc@PLT
	movq	%rax, %rdx
	.loc 12 237 47 discriminator 2
	movq	-40(%rbp), %rax
	movzbl	52(%rax), %eax
	movzbl	%al, %eax
	movl	%eax, %esi
	movq	%rdx, %rdi
	call	_ZNSolsEb@PLT
	.loc 12 237 57 discriminator 2
	leaq	.LC14(%rip), %rsi
	movq	%rax, %rdi
	call	_ZStlsISt11char_traitsIcEERSt13basic_ostreamIcT_ES5_PKc@PLT
	.loc 12 238 22 discriminator 2
	leaq	.LC22(%rip), %rsi
	leaq	_ZSt4cout(%rip), %rdi
	call	_ZStlsISt11char_traitsIcEERSt13basic_ostreamIcT_ES5_PKc@PLT
	movq	%rax, %rbx
	.loc 12 238 80 discriminator 2
	movq	-40(%rbp), %rax
	addq	$56, %rax
	movq	%rax, %rdi
	call	_ZNKSt5queueINSt7__cxx1112basic_stringIcSt11char_traitsIcESaIcEEESt5dequeIS5_SaIS5_EEE4sizeEv
	movq	%rax, %rsi
	movq	%rbx, %rdi
	call	_ZNSolsEm@PLT
	.loc 12 238 85 discriminator 2
	leaq	.LC23(%rip), %rsi
	movq	%rax, %rdi
	call	_ZStlsISt11char_traitsIcEERSt13basic_ostreamIcT_ES5_PKc@PLT
	.loc 12 233 24 discriminator 2
	leaq	-48(%rbp), %rax
	movq	%rax, %rdi
	call	_ZNSt8__detail14_Node_iteratorISt4pairIKi16participant_infoELb0ELb0EEppEv
	.loc 12 233 5 discriminator 2
	jmp	.L157
.L156:
.LBE80:
	.loc 12 240 18
	leaq	.LC16(%rip), %rsi
	leaq	_ZSt4cout(%rip), %rdi
	call	_ZStlsISt11char_traitsIcEERSt13basic_ostreamIcT_ES5_PKc@PLT
	.loc 12 241 1
	nop
	movq	-8(%rbp), %rbx
	leave
	.cfi_def_cfa 7, 8
	ret
	.cfi_endproc
.LFE4145:
	.size	_Z13printPartInfov, .-_Z13printPartInfov
	.section	.rodata
	.align 8
.LC24:
	.string	"Participant has already registered.\n"
	.align 8
.LC25:
	.string	"Failed to create the socket for thread B."
	.align 8
.LC26:
	.string	"Could not connect to remote host on thread B."
	.text
	.globl	_Z19registerParticipantRKNSt7__cxx1112basic_stringIcSt11char_traitsIcESaIcEEE
	.type	_Z19registerParticipantRKNSt7__cxx1112basic_stringIcSt11char_traitsIcESaIcEEE, @function
_Z19registerParticipantRKNSt7__cxx1112basic_stringIcSt11char_traitsIcESaIcEEE:
.LFB4146:
	.loc 12 243 52
	.cfi_startproc
	.cfi_personality 0x9b,DW.ref.__gxx_personality_v0
	.cfi_lsda 0x1b,.LLSDA4146
	pushq	%rbp
	.cfi_def_cfa_offset 16
	.cfi_offset 6, -16
	movq	%rsp, %rbp
	.cfi_def_cfa_register 6
	pushq	%rbx
	subq	$264, %rsp
	.cfi_offset 3, -24
	movq	%rdi, -264(%rbp)
	.loc 12 244 29
	leaq	-169(%rbp), %rax
	movq	%rax, %rdi
	call	_ZNSaIcEC1Ev@PLT
	leaq	-169(%rbp), %rdx
	leaq	-208(%rbp), %rax
	leaq	.LC9(%rip), %rsi
	movq	%rax, %rdi
.LEHB41:
	call	_ZNSt7__cxx1112basic_stringIcSt11char_traitsIcESaIcEEC1IS3_EEPKcRKS3_
.LEHE41:
	leaq	-169(%rbp), %rax
	movq	%rax, %rdi
	call	_ZNSaIcED1Ev@PLT
	.loc 12 244 33
	leaq	-240(%rbp), %rax
	movq	%rax, %rdi
	call	_ZNSt7__cxx1112basic_stringIcSt11char_traitsIcESaIcEEC1Ev
	.loc 12 245 18
	movl	$9, -20(%rbp)
	.loc 12 247 24
	movw	$1, -30(%rbp)
.L168:
	.loc 12 250 11
	movl	-20(%rbp), %ebx
	.loc 12 250 27
	movq	-264(%rbp), %rax
	movq	%rax, %rdi
	call	_ZNKSt7__cxx1112basic_stringIcSt11char_traitsIcESaIcEE6lengthEv
	.loc 12 250 13
	cmpq	%rax, %rbx
	setb	%al
	testb	%al, %al
	je	.L159
.L163:
	.loc 12 251 21 discriminator 7
	movl	-20(%rbp), %edx
	movq	-264(%rbp), %rax
	movq	%rdx, %rsi
	movq	%rax, %rdi
	call	_ZNKSt7__cxx1112basic_stringIcSt11char_traitsIcESaIcEEixEm
	.loc 12 251 23 discriminator 7
	movzbl	(%rax), %eax
	.loc 12 251 30 discriminator 7
	cmpb	$32, %al
	je	.L160
	.loc 12 251 33 discriminator 1
	movl	-20(%rbp), %ebx
	.loc 12 251 49 discriminator 1
	movq	-264(%rbp), %rax
	movq	%rax, %rdi
	call	_ZNKSt7__cxx1112basic_stringIcSt11char_traitsIcESaIcEE6lengthEv
	.loc 12 251 30 discriminator 1
	cmpq	%rax, %rbx
	jnb	.L160
	.loc 12 251 30 is_stmt 0 discriminator 3
	movl	$1, %eax
	jmp	.L161
.L160:
	.loc 12 251 30 discriminator 4
	movl	$0, %eax
.L161:
	.loc 12 251 30 discriminator 6
	testb	%al, %al
	je	.L162
	.loc 12 252 33 is_stmt 1
	movl	-20(%rbp), %edx
	movq	-264(%rbp), %rax
	movq	%rdx, %rsi
	movq	%rax, %rdi
	call	_ZNKSt7__cxx1112basic_stringIcSt11char_traitsIcESaIcEEixEm
	movzbl	(%rax), %eax
	movsbl	%al, %edx
	leaq	-208(%rbp), %rax
	movl	%edx, %esi
	movq	%rax, %rdi
.LEHB42:
	call	_ZNSt7__cxx1112basic_stringIcSt11char_traitsIcESaIcEEpLEc
	.loc 12 251 9
	addl	$1, -20(%rbp)
	jmp	.L163
.L162:
	.loc 12 254 16
	movzwl	-30(%rbp), %eax
	.loc 12 254 9
	cmpl	$3, %eax
	je	.L164
	cmpl	$3, %eax
	jg	.L165
	cmpl	$1, %eax
	je	.L166
	cmpl	$2, %eax
	je	.L167
	jmp	.L165
.L166:
	.loc 12 256 37
	leaq	-208(%rbp), %rax
	movl	$10, %edx
	movl	$0, %esi
	movq	%rax, %rdi
	call	_ZNSt7__cxx114stoiERKNS_12basic_stringIcSt11char_traitsIcESaIcEEEPmi
	.loc 12 256 26
	movl	%eax, -28(%rbp)
	.loc 12 257 17
	jmp	.L165
.L167:
	.loc 12 259 31
	leaq	-208(%rbp), %rax
	movl	$10, %edx
	movl	$0, %esi
	movq	%rax, %rdi
	call	_ZNSt7__cxx114stoiERKNS_12basic_stringIcSt11char_traitsIcESaIcEEEPmi
	.loc 12 259 20
	movl	%eax, -24(%rbp)
	.loc 12 260 17
	jmp	.L165
.L164:
	.loc 12 262 27
	leaq	-208(%rbp), %rdx
	leaq	-240(%rbp), %rax
	movq	%rdx, %rsi
	movq	%rax, %rdi
	call	_ZNSt7__cxx1112basic_stringIcSt11char_traitsIcESaIcEEaSERKS4_
.L165:
	.loc 12 265 24
	leaq	-208(%rbp), %rax
	movq	%rax, %rdi
	call	_ZNSt7__cxx1112basic_stringIcSt11char_traitsIcESaIcEE5clearEv
	.loc 12 266 13
	movzwl	-30(%rbp), %eax
	addl	$1, %eax
	movw	%ax, -30(%rbp)
	.loc 12 267 10
	addl	$1, -20(%rbp)
	.loc 12 250 5
	jmp	.L168
.L159:
	.loc 12 270 50
	leaq	client_table(%rip), %rdi
	call	_ZNSt13unordered_mapIi16participant_infoSt4hashIiESt8equal_toIiESaISt4pairIKiS0_EEE3endEv
	movq	%rax, -168(%rbp)
	.loc 12 270 26
	movl	-24(%rbp), %eax
	movl	%eax, -148(%rbp)
	.loc 12 270 28
	leaq	-148(%rbp), %rax
	movq	%rax, %rsi
	leaq	client_table(%rip), %rdi
	call	_ZNSt13unordered_mapIi16participant_infoSt4hashIiESt8equal_toIiESaISt4pairIKiS0_EEE4findERS6_
	movq	%rax, -160(%rbp)
	.loc 12 270 30
	leaq	-168(%rbp), %rdx
	leaq	-160(%rbp), %rax
	movq	%rdx, %rsi
	movq	%rax, %rdi
	call	_ZNSt8__detailneISt4pairIKi16participant_infoELb0EEEbRKNS_19_Node_iterator_baseIT_XT0_EEES9_
	.loc 12 270 5
	testb	%al, %al
	je	.L169
	.loc 12 271 22
	leaq	.LC24(%rip), %rsi
	leaq	_ZSt4cerr(%rip), %rdi
	call	_ZStlsISt11char_traitsIcEERSt13basic_ostreamIcT_ES5_PKc@PLT
.LEHE42:
	.loc 12 272 9
	movl	$0, %ebx
	jmp	.L170
.L169:
	.loc 12 277 25
	movl	$0, %edx
	movl	$1, %esi
	movl	$2, %edi
	call	socket@PLT
	movl	%eax, -36(%rbp)
	.loc 12 277 52
	cmpl	$-1, -36(%rbp)
	sete	%al
	.loc 12 277 5
	testb	%al, %al
	je	.L171
	.loc 12 278 60
	leaq	-97(%rbp), %rax
	movq	%rax, %rdi
	call	_ZNSaIcEC1Ev@PLT
	leaq	-97(%rbp), %rdx
	leaq	-144(%rbp), %rax
	leaq	.LC25(%rip), %rsi
	movq	%rax, %rdi
.LEHB43:
	call	_ZNSt7__cxx1112basic_stringIcSt11char_traitsIcESaIcEEC1IS3_EEPKcRKS3_
.LEHE43:
	.loc 12 278 16 discriminator 1
	leaq	-144(%rbp), %rax
	movq	%rax, %rdi
.LEHB44:
	call	_Z7errexitNSt7__cxx1112basic_stringIcSt11char_traitsIcESaIcEEE
.LEHE44:
	.loc 12 278 60 discriminator 3
	leaq	-144(%rbp), %rax
	movq	%rax, %rdi
	call	_ZNSt7__cxx1112basic_stringIcSt11char_traitsIcESaIcEED1Ev
	.loc 5 525 59 discriminator 3
	leaq	-97(%rbp), %rax
	movq	%rax, %rdi
	call	_ZNSaIcED1Ev@PLT
.L171:
	.loc 12 281 11
	leaq	-256(%rbp), %rax
	movl	$16, %edx
	movl	$0, %esi
	movq	%rax, %rdi
	call	memset@PLT
	.loc 12 283 21
	movw	$2, -256(%rbp)
	.loc 12 284 26
	movl	-28(%rbp), %eax
	movzwl	%ax, %eax
	movl	%eax, %edi
	call	htons@PLT
	.loc 12 284 19
	movw	%ax, -254(%rbp)
	.loc 12 285 26
	movl	$0, -252(%rbp)
	.loc 12 289 15
	leaq	-256(%rbp), %rcx
	movl	-36(%rbp), %eax
	movl	$16, %edx
	movq	%rcx, %rsi
	movl	%eax, %edi
.LEHB45:
	call	connect@PLT
.LEHE45:
	.loc 12 289 65
	cmpl	$-1, %eax
	sete	%al
	.loc 12 289 5
	testb	%al, %al
	je	.L172
	.loc 12 290 64
	leaq	-57(%rbp), %rax
	movq	%rax, %rdi
	call	_ZNSaIcEC1Ev@PLT
	leaq	-57(%rbp), %rdx
	leaq	-96(%rbp), %rax
	leaq	.LC26(%rip), %rsi
	movq	%rax, %rdi
.LEHB46:
	call	_ZNSt7__cxx1112basic_stringIcSt11char_traitsIcESaIcEEC1IS3_EEPKcRKS3_
.LEHE46:
	.loc 12 290 16 discriminator 1
	leaq	-96(%rbp), %rax
	movq	%rax, %rdi
.LEHB47:
	call	_Z7errexitNSt7__cxx1112basic_stringIcSt11char_traitsIcESaIcEEE
.LEHE47:
	.loc 12 290 64 discriminator 3
	leaq	-96(%rbp), %rax
	movq	%rax, %rdi
	call	_ZNSt7__cxx1112basic_stringIcSt11char_traitsIcESaIcEED1Ev
	.loc 5 525 59 discriminator 3
	leaq	-57(%rbp), %rax
	movq	%rax, %rdi
	call	_ZNSaIcED1Ev@PLT
.L172:
	.loc 12 294 23
	leaq	message_mutex(%rip), %rdi
	call	pthread_mutex_lock@PLT
	.loc 12 295 27
	movl	-24(%rbp), %ebx
	.loc 12 295 18
	movl	-24(%rbp), %eax
	movl	%eax, -56(%rbp)
	.loc 12 295 20
	leaq	-56(%rbp), %rax
	movq	%rax, %rsi
	leaq	client_table(%rip), %rdi
.LEHB48:
	call	_ZNSt13unordered_mapIi16participant_infoSt4hashIiESt8equal_toIiESaISt4pairIKiS0_EEEixEOi
	.loc 12 295 25
	movl	%ebx, 4(%rax)
	.loc 12 296 29
	movl	-28(%rbp), %ebx
	.loc 12 296 18
	movl	-24(%rbp), %eax
	movl	%eax, -52(%rbp)
	.loc 12 296 20
	leaq	-52(%rbp), %rax
	movq	%rax, %rsi
	leaq	client_table(%rip), %rdi
	call	_ZNSt13unordered_mapIi16participant_infoSt4hashIiESt8equal_toIiESaISt4pairIKiS0_EEEixEOi
	.loc 12 296 27 discriminator 2
	movl	%ebx, (%rax)
	.loc 12 297 18 discriminator 2
	movl	-24(%rbp), %eax
	movl	%eax, -48(%rbp)
	.loc 12 297 20 discriminator 2
	leaq	-48(%rbp), %rax
	movq	%rax, %rsi
	leaq	client_table(%rip), %rdi
	call	_ZNSt13unordered_mapIi16participant_infoSt4hashIiESt8equal_toIiESaISt4pairIKiS0_EEEixEOi
	.loc 12 297 32 discriminator 2
	leaq	8(%rax), %rdx
	leaq	-240(%rbp), %rax
	movq	%rax, %rsi
	movq	%rdx, %rdi
	call	_ZNSt7__cxx1112basic_stringIcSt11char_traitsIcESaIcEEaSERKS4_
	.loc 12 298 18 discriminator 4
	movl	-24(%rbp), %eax
	movl	%eax, -44(%rbp)
	.loc 12 298 20 discriminator 4
	leaq	-44(%rbp), %rax
	movq	%rax, %rsi
	leaq	client_table(%rip), %rdi
	call	_ZNSt13unordered_mapIi16participant_infoSt4hashIiESt8equal_toIiESaISt4pairIKiS0_EEEixEOi
	.loc 12 298 29 discriminator 4
	movb	$1, 44(%rax)
	.loc 12 299 36 discriminator 4
	movl	-36(%rbp), %ebx
	.loc 12 299 18 discriminator 4
	movl	-24(%rbp), %eax
	movl	%eax, -40(%rbp)
	.loc 12 299 20 discriminator 4
	leaq	-40(%rbp), %rax
	movq	%rax, %rsi
	leaq	client_table(%rip), %rdi
	call	_ZNSt13unordered_mapIi16participant_infoSt4hashIiESt8equal_toIiESaISt4pairIKiS0_EEEixEOi
.LEHE48:
	.loc 12 299 36 discriminator 2
	movl	%ebx, 40(%rax)
	.loc 12 300 25 discriminator 2
	leaq	message_mutex(%rip), %rdi
	call	pthread_mutex_unlock@PLT
	movl	$1, %ebx
.L170:
	leaq	-240(%rbp), %rax
	movq	%rax, %rdi
	call	_ZNSt7__cxx1112basic_stringIcSt11char_traitsIcESaIcEED1Ev
	cmpl	$1, %ebx
	je	.L173
	movl	$0, %ebx
	jmp	.L174
.L173:
	movl	$1, %ebx
.L174:
	leaq	-208(%rbp), %rax
	movq	%rax, %rdi
	call	_ZNSt7__cxx1112basic_stringIcSt11char_traitsIcESaIcEED1Ev
	cmpl	$1, %ebx
	.loc 12 301 1 discriminator 4
	jmp	.L189
.L183:
	movq	%rax, %rbx
	leaq	-169(%rbp), %rax
	movq	%rax, %rdi
	call	_ZNSaIcED1Ev@PLT
	movq	%rbx, %rax
	movq	%rax, %rdi
.LEHB49:
	call	_Unwind_Resume@PLT
.L186:
	.loc 12 278 60
	movq	%rax, %rbx
	leaq	-144(%rbp), %rax
	movq	%rax, %rdi
	call	_ZNSt7__cxx1112basic_stringIcSt11char_traitsIcESaIcEED1Ev
	jmp	.L179
.L185:
	.loc 5 525 59
	movq	%rax, %rbx
.L179:
	leaq	-97(%rbp), %rax
	movq	%rax, %rdi
	call	_ZNSaIcED1Ev@PLT
	jmp	.L180
.L188:
	.loc 12 290 64
	movq	%rax, %rbx
	leaq	-96(%rbp), %rax
	movq	%rax, %rdi
	call	_ZNSt7__cxx1112basic_stringIcSt11char_traitsIcESaIcEED1Ev
	jmp	.L182
.L187:
	.loc 5 525 59
	movq	%rax, %rbx
.L182:
	leaq	-57(%rbp), %rax
	movq	%rax, %rdi
	call	_ZNSaIcED1Ev@PLT
	jmp	.L180
.L184:
	.loc 12 244 33
	movq	%rax, %rbx
.L180:
	leaq	-240(%rbp), %rax
	movq	%rax, %rdi
	call	_ZNSt7__cxx1112basic_stringIcSt11char_traitsIcESaIcEED1Ev
	.loc 12 244 29
	leaq	-208(%rbp), %rax
	movq	%rax, %rdi
	call	_ZNSt7__cxx1112basic_stringIcSt11char_traitsIcESaIcEED1Ev
	movq	%rbx, %rax
	movq	%rax, %rdi
	call	_Unwind_Resume@PLT
.LEHE49:
.L189:
	.loc 12 301 1
	movq	-8(%rbp), %rbx
	leave
	.cfi_def_cfa 7, 8
	ret
	.cfi_endproc
.LFE4146:
	.section	.gcc_except_table
.LLSDA4146:
	.byte	0xff
	.byte	0xff
	.byte	0x1
	.uleb128 .LLSDACSE4146-.LLSDACSB4146
.LLSDACSB4146:
	.uleb128 .LEHB41-.LFB4146
	.uleb128 .LEHE41-.LEHB41
	.uleb128 .L183-.LFB4146
	.uleb128 0
	.uleb128 .LEHB42-.LFB4146
	.uleb128 .LEHE42-.LEHB42
	.uleb128 .L184-.LFB4146
	.uleb128 0
	.uleb128 .LEHB43-.LFB4146
	.uleb128 .LEHE43-.LEHB43
	.uleb128 .L185-.LFB4146
	.uleb128 0
	.uleb128 .LEHB44-.LFB4146
	.uleb128 .LEHE44-.LEHB44
	.uleb128 .L186-.LFB4146
	.uleb128 0
	.uleb128 .LEHB45-.LFB4146
	.uleb128 .LEHE45-.LEHB45
	.uleb128 .L184-.LFB4146
	.uleb128 0
	.uleb128 .LEHB46-.LFB4146
	.uleb128 .LEHE46-.LEHB46
	.uleb128 .L187-.LFB4146
	.uleb128 0
	.uleb128 .LEHB47-.LFB4146
	.uleb128 .LEHE47-.LEHB47
	.uleb128 .L188-.LFB4146
	.uleb128 0
	.uleb128 .LEHB48-.LFB4146
	.uleb128 .LEHE48-.LEHB48
	.uleb128 .L184-.LFB4146
	.uleb128 0
	.uleb128 .LEHB49-.LFB4146
	.uleb128 .LEHE49-.LEHB49
	.uleb128 0
	.uleb128 0
.LLSDACSE4146:
	.text
	.size	_Z19registerParticipantRKNSt7__cxx1112basic_stringIcSt11char_traitsIcESaIcEEE, .-_Z19registerParticipantRKNSt7__cxx1112basic_stringIcSt11char_traitsIcESaIcEEE
	.section	.text._ZN9__gnu_cxx11char_traitsIcE2ltERKcS3_,"axG",@progbits,_ZN9__gnu_cxx11char_traitsIcE2ltERKcS3_,comdat
	.weak	_ZN9__gnu_cxx11char_traitsIcE2ltERKcS3_
	.type	_ZN9__gnu_cxx11char_traitsIcE2ltERKcS3_, @function
_ZN9__gnu_cxx11char_traitsIcE2ltERKcS3_:
.LFB4149:
	.loc 3 110 7
	.cfi_startproc
	pushq	%rbp
	.cfi_def_cfa_offset 16
	.cfi_offset 6, -16
	movq	%rsp, %rbp
	.cfi_def_cfa_register 6
	movq	%rdi, -8(%rbp)
	movq	%rsi, -16(%rbp)
	.loc 3 111 21
	movq	-8(%rbp), %rax
	movzbl	(%rax), %edx
	movq	-16(%rbp), %rax
	movzbl	(%rax), %eax
	.loc 3 111 23
	cmpb	%al, %dl
	setl	%al
	.loc 3 111 29
	popq	%rbp
	.cfi_def_cfa 7, 8
	ret
	.cfi_endproc
.LFE4149:
	.size	_ZN9__gnu_cxx11char_traitsIcE2ltERKcS3_, .-_ZN9__gnu_cxx11char_traitsIcE2ltERKcS3_
	.section	.text._ZN9__gnu_cxx11char_traitsIcE7compareEPKcS3_m,"axG",@progbits,_ZN9__gnu_cxx11char_traitsIcE7compareEPKcS3_m,comdat
	.align 2
	.weak	_ZN9__gnu_cxx11char_traitsIcE7compareEPKcS3_m
	.type	_ZN9__gnu_cxx11char_traitsIcE7compareEPKcS3_m, @function
_ZN9__gnu_cxx11char_traitsIcE7compareEPKcS3_m:
.LFB4148:
	.loc 3 154 5
	.cfi_startproc
	pushq	%rbp
	.cfi_def_cfa_offset 16
	.cfi_offset 6, -16
	movq	%rsp, %rbp
	.cfi_def_cfa_register 6
	subq	$48, %rsp
	movq	%rdi, -24(%rbp)
	movq	%rsi, -32(%rbp)
	movq	%rdx, -40(%rbp)
.LBB81:
	.loc 3 157 24
	movq	$0, -8(%rbp)
.L197:
	.loc 3 157 37 discriminator 1
	movq	-8(%rbp), %rax
	cmpq	-40(%rbp), %rax
	jnb	.L193
	.loc 3 158 24
	movq	-32(%rbp), %rdx
	movq	-8(%rbp), %rax
	addq	%rax, %rdx
	.loc 3 158 13
	movq	-24(%rbp), %rcx
	movq	-8(%rbp), %rax
	addq	%rcx, %rax
	.loc 3 158 8
	movq	%rdx, %rsi
	movq	%rax, %rdi
	call	_ZN9__gnu_cxx11char_traitsIcE2ltERKcS3_
	.loc 3 158 2
	testb	%al, %al
	je	.L194
	.loc 3 159 12
	movl	$-1, %eax
	jmp	.L195
.L194:
	.loc 3 160 29
	movq	-24(%rbp), %rdx
	movq	-8(%rbp), %rax
	addq	%rax, %rdx
	.loc 3 160 18
	movq	-32(%rbp), %rcx
	movq	-8(%rbp), %rax
	addq	%rcx, %rax
	.loc 3 160 13
	movq	%rdx, %rsi
	movq	%rax, %rdi
	call	_ZN9__gnu_cxx11char_traitsIcE2ltERKcS3_
	.loc 3 160 7
	testb	%al, %al
	je	.L196
	.loc 3 161 11
	movl	$1, %eax
	jmp	.L195
.L196:
	.loc 3 157 7 discriminator 2
	addq	$1, -8(%rbp)
	jmp	.L197
.L193:
.LBE81:
	.loc 3 162 14
	movl	$0, %eax
.L195:
	.loc 3 163 5
	leave
	.cfi_def_cfa 7, 8
	ret
	.cfi_endproc
.LFE4148:
	.size	_ZN9__gnu_cxx11char_traitsIcE7compareEPKcS3_m, .-_ZN9__gnu_cxx11char_traitsIcE7compareEPKcS3_m
	.section	.text._ZN9__gnu_cxx11char_traitsIcE2eqERKcS3_,"axG",@progbits,_ZN9__gnu_cxx11char_traitsIcE2eqERKcS3_,comdat
	.weak	_ZN9__gnu_cxx11char_traitsIcE2eqERKcS3_
	.type	_ZN9__gnu_cxx11char_traitsIcE2eqERKcS3_, @function
_ZN9__gnu_cxx11char_traitsIcE2eqERKcS3_:
.LFB4151:
	.loc 3 106 7
	.cfi_startproc
	pushq	%rbp
	.cfi_def_cfa_offset 16
	.cfi_offset 6, -16
	movq	%rsp, %rbp
	.cfi_def_cfa_register 6
	movq	%rdi, -8(%rbp)
	movq	%rsi, -16(%rbp)
	.loc 3 107 21
	movq	-8(%rbp), %rax
	movzbl	(%rax), %edx
	movq	-16(%rbp), %rax
	movzbl	(%rax), %eax
	.loc 3 107 24
	cmpb	%al, %dl
	sete	%al
	.loc 3 107 30
	popq	%rbp
	.cfi_def_cfa 7, 8
	ret
	.cfi_endproc
.LFE4151:
	.size	_ZN9__gnu_cxx11char_traitsIcE2eqERKcS3_, .-_ZN9__gnu_cxx11char_traitsIcE2eqERKcS3_
	.section	.text._ZN9__gnu_cxx11char_traitsIcE6lengthEPKc,"axG",@progbits,_ZN9__gnu_cxx11char_traitsIcE6lengthEPKc,comdat
	.align 2
	.weak	_ZN9__gnu_cxx11char_traitsIcE6lengthEPKc
	.type	_ZN9__gnu_cxx11char_traitsIcE6lengthEPKc, @function
_ZN9__gnu_cxx11char_traitsIcE6lengthEPKc:
.LFB4150:
	.loc 3 167 5
	.cfi_startproc
	pushq	%rbp
	.cfi_def_cfa_offset 16
	.cfi_offset 6, -16
	movq	%rsp, %rbp
	.cfi_def_cfa_register 6
	subq	$32, %rsp
	movq	%rdi, -24(%rbp)
	.loc 3 170 19
	movq	$0, -8(%rbp)
.L202:
	.loc 3 171 17
	movb	$0, -9(%rbp)
	.loc 3 171 21
	movq	-24(%rbp), %rdx
	movq	-8(%rbp), %rax
	addq	%rax, %rdx
	.loc 3 171 17
	leaq	-9(%rbp), %rax
	movq	%rax, %rsi
	movq	%rdx, %rdi
	call	_ZN9__gnu_cxx11char_traitsIcE2eqERKcS3_
	xorl	$1, %eax
	testb	%al, %al
	je	.L201
	.loc 3 172 9
	addq	$1, -8(%rbp)
	.loc 3 171 7
	jmp	.L202
.L201:
	.loc 3 173 14
	movq	-8(%rbp), %rax
	.loc 3 174 5
	leave
	.cfi_def_cfa 7, 8
	ret
	.cfi_endproc
.LFE4150:
	.size	_ZN9__gnu_cxx11char_traitsIcE6lengthEPKc, .-_ZN9__gnu_cxx11char_traitsIcE6lengthEPKc
	.section	.text._ZSt4copyIPKcPcET0_T_S4_S3_,"axG",@progbits,_ZSt4copyIPKcPcET0_T_S4_S3_,comdat
	.weak	_ZSt4copyIPKcPcET0_T_S4_S3_
	.type	_ZSt4copyIPKcPcET0_T_S4_S3_, @function
_ZSt4copyIPKcPcET0_T_S4_S3_:
.LFB4155:
	.loc 7 560 5
	.cfi_startproc
	pushq	%rbp
	.cfi_def_cfa_offset 16
	.cfi_offset 6, -16
	movq	%rsp, %rbp
	.cfi_def_cfa_register 6
	pushq	%rbx
	subq	$40, %rsp
	.cfi_offset 3, -24
	movq	%rdi, -24(%rbp)
	movq	%rsi, -32(%rbp)
	movq	%rdx, -40(%rbp)
	.loc 7 569 7
	movq	-32(%rbp), %rax
	movq	%rax, %rdi
	call	_ZSt12__miter_baseIPKcET_S2_
	movq	%rax, %rbx
	movq	-24(%rbp), %rax
	movq	%rax, %rdi
	call	_ZSt12__miter_baseIPKcET_S2_
	movq	%rax, %rcx
	movq	-40(%rbp), %rax
	movq	%rax, %rdx
	movq	%rbx, %rsi
	movq	%rcx, %rdi
	call	_ZSt13__copy_move_aILb0EPKcPcET1_T0_S4_S3_
	.loc 7 570 5
	movq	-8(%rbp), %rbx
	leave
	.cfi_def_cfa 7, 8
	ret
	.cfi_endproc
.LFE4155:
	.size	_ZSt4copyIPKcPcET0_T_S4_S3_, .-_ZSt4copyIPKcPcET0_T_S4_S3_
	.section	.text._ZN9__gnu_cxx11char_traitsIcE4copyEPcPKcm,"axG",@progbits,_ZN9__gnu_cxx11char_traitsIcE4copyEPcPKcm,comdat
	.align 2
	.weak	_ZN9__gnu_cxx11char_traitsIcE4copyEPcPKcm
	.type	_ZN9__gnu_cxx11char_traitsIcE4copyEPcPKcm, @function
_ZN9__gnu_cxx11char_traitsIcE4copyEPcPKcm:
.LFB4156:
	.loc 3 212 5
	.cfi_startproc
	pushq	%rbp
	.cfi_def_cfa_offset 16
	.cfi_offset 6, -16
	movq	%rsp, %rbp
	.cfi_def_cfa_register 6
	subq	$32, %rsp
	movq	%rdi, -8(%rbp)
	movq	%rsi, -16(%rbp)
	movq	%rdx, -24(%rbp)
	.loc 3 216 16
	movq	-16(%rbp), %rdx
	movq	-24(%rbp), %rax
	leaq	(%rdx,%rax), %rcx
	movq	-8(%rbp), %rdx
	movq	-16(%rbp), %rax
	movq	%rcx, %rsi
	movq	%rax, %rdi
	call	_ZSt4copyIPKcPcET0_T_S4_S3_
	.loc 3 217 14
	movq	-8(%rbp), %rax
	.loc 3 218 5
	leave
	.cfi_def_cfa 7, 8
	ret
	.cfi_endproc
.LFE4156:
	.size	_ZN9__gnu_cxx11char_traitsIcE4copyEPcPKcm, .-_ZN9__gnu_cxx11char_traitsIcE4copyEPcPKcm
	.section	.text._ZNKSt7__cxx1112basic_stringIcSt11char_traitsIcESaIcEE5c_strEv,"axG",@progbits,_ZNKSt7__cxx1112basic_stringIcSt11char_traitsIcESaIcEE5c_strEv,comdat
	.align 2
	.weak	_ZNKSt7__cxx1112basic_stringIcSt11char_traitsIcESaIcEE5c_strEv
	.type	_ZNKSt7__cxx1112basic_stringIcSt11char_traitsIcESaIcEE5c_strEv, @function
_ZNKSt7__cxx1112basic_stringIcSt11char_traitsIcESaIcEE5c_strEv:
.LFB4213:
	.loc 5 2299 7
	.cfi_startproc
	pushq	%rbp
	.cfi_def_cfa_offset 16
	.cfi_offset 6, -16
	movq	%rsp, %rbp
	.cfi_def_cfa_register 6
	subq	$16, %rsp
	movq	%rdi, -8(%rbp)
	.loc 5 2300 23
	movq	-8(%rbp), %rax
	movq	%rax, %rdi
	call	_ZNKSt7__cxx1112basic_stringIcSt11char_traitsIcESaIcEE7_M_dataEv
	.loc 5 2300 27
	leave
	.cfi_def_cfa 7, 8
	ret
	.cfi_endproc
.LFE4213:
	.size	_ZNKSt7__cxx1112basic_stringIcSt11char_traitsIcESaIcEE5c_strEv, .-_ZNKSt7__cxx1112basic_stringIcSt11char_traitsIcESaIcEE5c_strEv
	.section	.text._ZZN9__gnu_cxx6__stoaIlicJiEEET0_PFT_PKT1_PPS3_DpT2_EPKcS5_PmS9_EN11_Save_errnoC2Ev,"axG",@progbits,_ZZN9__gnu_cxx6__stoaIlicJiEEET0_PFT_PKT1_PPS3_DpT2_EPKcS5_PmS9_EN11_Save_errnoC5Ev,comdat
	.align 2
	.weak	_ZZN9__gnu_cxx6__stoaIlicJiEEET0_PFT_PKT1_PPS3_DpT2_EPKcS5_PmS9_EN11_Save_errnoC2Ev
	.type	_ZZN9__gnu_cxx6__stoaIlicJiEEET0_PFT_PKT1_PPS3_DpT2_EPKcS5_PmS9_EN11_Save_errnoC2Ev, @function
_ZZN9__gnu_cxx6__stoaIlicJiEEET0_PFT_PKT1_PPS3_DpT2_EPKcS5_PmS9_EN11_Save_errnoC2Ev:
.LFB4216:
	.file 13 "/usr/include/c++/10/ext/string_conversions.h"
	.loc 13 63 2
	.cfi_startproc
	pushq	%rbp
	.cfi_def_cfa_offset 16
	.cfi_offset 6, -16
	movq	%rsp, %rbp
	.cfi_def_cfa_register 6
	subq	$16, %rsp
	movq	%rdi, -8(%rbp)
.LBB82:
	.loc 13 63 27
	call	__errno_location@PLT
	.loc 13 63 32
	movl	(%rax), %edx
	movq	-8(%rbp), %rax
	movl	%edx, (%rax)
	.loc 13 63 36
	call	__errno_location@PLT
	.loc 13 63 42
	movl	$0, (%rax)
.LBE82:
	.loc 13 63 47
	nop
	leave
	.cfi_def_cfa 7, 8
	ret
	.cfi_endproc
.LFE4216:
	.size	_ZZN9__gnu_cxx6__stoaIlicJiEEET0_PFT_PKT1_PPS3_DpT2_EPKcS5_PmS9_EN11_Save_errnoC2Ev, .-_ZZN9__gnu_cxx6__stoaIlicJiEEET0_PFT_PKT1_PPS3_DpT2_EPKcS5_PmS9_EN11_Save_errnoC2Ev
	.weak	_ZZN9__gnu_cxx6__stoaIlicJiEEET0_PFT_PKT1_PPS3_DpT2_EPKcS5_PmS9_EN11_Save_errnoC1Ev
	.set	_ZZN9__gnu_cxx6__stoaIlicJiEEET0_PFT_PKT1_PPS3_DpT2_EPKcS5_PmS9_EN11_Save_errnoC1Ev,_ZZN9__gnu_cxx6__stoaIlicJiEEET0_PFT_PKT1_PPS3_DpT2_EPKcS5_PmS9_EN11_Save_errnoC2Ev
	.section	.text._ZZN9__gnu_cxx6__stoaIlicJiEEET0_PFT_PKT1_PPS3_DpT2_EPKcS5_PmS9_EN11_Save_errnoD2Ev,"axG",@progbits,_ZZN9__gnu_cxx6__stoaIlicJiEEET0_PFT_PKT1_PPS3_DpT2_EPKcS5_PmS9_EN11_Save_errnoD5Ev,comdat
	.align 2
	.weak	_ZZN9__gnu_cxx6__stoaIlicJiEEET0_PFT_PKT1_PPS3_DpT2_EPKcS5_PmS9_EN11_Save_errnoD2Ev
	.type	_ZZN9__gnu_cxx6__stoaIlicJiEEET0_PFT_PKT1_PPS3_DpT2_EPKcS5_PmS9_EN11_Save_errnoD2Ev, @function
_ZZN9__gnu_cxx6__stoaIlicJiEEET0_PFT_PKT1_PPS3_DpT2_EPKcS5_PmS9_EN11_Save_errnoD2Ev:
.LFB4219:
	.loc 13 64 2
	.cfi_startproc
	pushq	%rbp
	.cfi_def_cfa_offset 16
	.cfi_offset 6, -16
	movq	%rsp, %rbp
	.cfi_def_cfa_register 6
	subq	$16, %rsp
	movq	%rdi, -8(%rbp)
.LBB83:
	.loc 13 64 23
	call	__errno_location@PLT
	.loc 13 64 29
	movl	(%rax), %eax
	.loc 13 64 19
	testl	%eax, %eax
	jne	.L213
	.loc 13 64 35 discriminator 1
	call	__errno_location@PLT
	.loc 13 64 43 discriminator 1
	movq	-8(%rbp), %rdx
	movl	(%rdx), %edx
	.loc 13 64 41 discriminator 1
	movl	%edx, (%rax)
.L213:
.LBE83:
	.loc 13 64 53
	nop
	leave
	.cfi_def_cfa 7, 8
	ret
	.cfi_endproc
.LFE4219:
	.size	_ZZN9__gnu_cxx6__stoaIlicJiEEET0_PFT_PKT1_PPS3_DpT2_EPKcS5_PmS9_EN11_Save_errnoD2Ev, .-_ZZN9__gnu_cxx6__stoaIlicJiEEET0_PFT_PKT1_PPS3_DpT2_EPKcS5_PmS9_EN11_Save_errnoD2Ev
	.weak	_ZZN9__gnu_cxx6__stoaIlicJiEEET0_PFT_PKT1_PPS3_DpT2_EPKcS5_PmS9_EN11_Save_errnoD1Ev
	.set	_ZZN9__gnu_cxx6__stoaIlicJiEEET0_PFT_PKT1_PPS3_DpT2_EPKcS5_PmS9_EN11_Save_errnoD1Ev,_ZZN9__gnu_cxx6__stoaIlicJiEEET0_PFT_PKT1_PPS3_DpT2_EPKcS5_PmS9_EN11_Save_errnoD2Ev
	.section	.text._ZZN9__gnu_cxx6__stoaIlicJiEEET0_PFT_PKT1_PPS3_DpT2_EPKcS5_PmS9_EN10_Range_chk6_S_chkElSt17integral_constantIbLb1EE,"axG",@progbits,_ZZN9__gnu_cxx6__stoaIlicJiEEET0_PFT_PKT1_PPS3_DpT2_EPKcS5_PmS9_EN10_Range_chk6_S_chkElSt17integral_constantIbLb1EE,comdat
	.weak	_ZZN9__gnu_cxx6__stoaIlicJiEEET0_PFT_PKT1_PPS3_DpT2_EPKcS5_PmS9_EN10_Range_chk6_S_chkElSt17integral_constantIbLb1EE
	.type	_ZZN9__gnu_cxx6__stoaIlicJiEEET0_PFT_PKT1_PPS3_DpT2_EPKcS5_PmS9_EN10_Range_chk6_S_chkElSt17integral_constantIbLb1EE, @function
_ZZN9__gnu_cxx6__stoaIlicJiEEET0_PFT_PKT1_PPS3_DpT2_EPKcS5_PmS9_EN10_Range_chk6_S_chkElSt17integral_constantIbLb1EE:
.LFB4222:
	.loc 13 73 4
	.cfi_startproc
	pushq	%rbp
	.cfi_def_cfa_offset 16
	.cfi_offset 6, -16
	movq	%rsp, %rbp
	.cfi_def_cfa_register 6
	movq	%rdi, -8(%rbp)
	.loc 13 76 8
	movabsq	$-2147483649, %rax
	cmpq	%rax, -8(%rbp)
	jle	.L215
	.loc 13 76 8 is_stmt 0 discriminator 2
	movl	$2147483648, %eax
	cmpq	%rax, -8(%rbp)
	jl	.L216
.L215:
	.loc 13 76 8 discriminator 3
	movl	$1, %eax
	jmp	.L217
.L216:
	.loc 13 76 8 discriminator 4
	movl	$0, %eax
.L217:
	.loc 13 77 4 is_stmt 1 discriminator 6
	popq	%rbp
	.cfi_def_cfa 7, 8
	ret
	.cfi_endproc
.LFE4222:
	.size	_ZZN9__gnu_cxx6__stoaIlicJiEEET0_PFT_PKT1_PPS3_DpT2_EPKcS5_PmS9_EN10_Range_chk6_S_chkElSt17integral_constantIbLb1EE, .-_ZZN9__gnu_cxx6__stoaIlicJiEEET0_PFT_PKT1_PPS3_DpT2_EPKcS5_PmS9_EN10_Range_chk6_S_chkElSt17integral_constantIbLb1EE
	.section	.text._ZN9__gnu_cxx6__stoaIlicJiEEET0_PFT_PKT1_PPS3_DpT2_EPKcS5_PmS9_,"axG",@progbits,_ZN9__gnu_cxx6__stoaIlicJiEEET0_PFT_PKT1_PPS3_DpT2_EPKcS5_PmS9_,comdat
	.weak	_ZN9__gnu_cxx6__stoaIlicJiEEET0_PFT_PKT1_PPS3_DpT2_EPKcS5_PmS9_
	.type	_ZN9__gnu_cxx6__stoaIlicJiEEET0_PFT_PKT1_PPS3_DpT2_EPKcS5_PmS9_, @function
_ZN9__gnu_cxx6__stoaIlicJiEEET0_PFT_PKT1_PPS3_DpT2_EPKcS5_PmS9_:
.LFB4214:
	.loc 13 54 5
	.cfi_startproc
	.cfi_personality 0x9b,DW.ref.__gxx_personality_v0
	.cfi_lsda 0x1b,.LLSDA4214
	pushq	%rbp
	.cfi_def_cfa_offset 16
	.cfi_offset 6, -16
	movq	%rsp, %rbp
	.cfi_def_cfa_register 6
	pushq	%rbx
	subq	$88, %rsp
	.cfi_offset 3, -24
	movq	%rdi, -56(%rbp)
	movq	%rsi, -64(%rbp)
	movq	%rdx, -72(%rbp)
	movq	%rcx, -80(%rbp)
	movl	%r8d, -84(%rbp)
	.loc 13 66 15
	leaq	-44(%rbp), %rax
	movq	%rax, %rdi
	call	_ZZN9__gnu_cxx6__stoaIlicJiEEET0_PFT_PKT1_PPS3_DpT2_EPKcS5_PmS9_EN11_Save_errnoC1Ev
	.loc 13 80 34
	movq	-56(%rbp), %r8
	movl	-84(%rbp), %edx
	leaq	-40(%rbp), %rcx
	movq	-72(%rbp), %rax
	movq	%rcx, %rsi
	movq	%rax, %rdi
.LEHB50:
	call	*%r8
.LVL1:
	movq	%rax, -24(%rbp)
	.loc 13 82 11
	movq	-40(%rbp), %rax
	.loc 13 82 7
	cmpq	%rax, -72(%rbp)
	jne	.L220
	.loc 13 83 31
	movq	-64(%rbp), %rax
	movq	%rax, %rdi
	call	_ZSt24__throw_invalid_argumentPKc@PLT
.L220:
	.loc 13 84 16
	call	__errno_location@PLT
	.loc 13 84 22
	movl	(%rax), %eax
	.loc 13 85 4
	cmpl	$34, %eax
	je	.L221
	.loc 13 85 25 discriminator 2
	movq	-24(%rbp), %rax
	movq	%rax, %rdi
	call	_ZZN9__gnu_cxx6__stoaIlicJiEEET0_PFT_PKT1_PPS3_DpT2_EPKcS5_PmS9_EN10_Range_chk6_S_chkElSt17integral_constantIbLb1EE
	.loc 13 85 4 discriminator 2
	testb	%al, %al
	je	.L222
.L221:
	.loc 13 85 4 is_stmt 0 discriminator 3
	movl	$1, %eax
	jmp	.L223
.L222:
	.loc 13 85 4 discriminator 4
	movl	$0, %eax
.L223:
	.loc 13 84 12 is_stmt 1 discriminator 6
	testb	%al, %al
	je	.L224
	.loc 13 86 27
	movq	-64(%rbp), %rax
	movq	%rax, %rdi
	call	_ZSt20__throw_out_of_rangePKc@PLT
.LEHE50:
.L224:
	.loc 13 88 8
	movq	-24(%rbp), %rax
	movl	%eax, -28(%rbp)
	.loc 13 90 7
	cmpq	$0, -80(%rbp)
	je	.L225
	.loc 13 91 20
	movq	-40(%rbp), %rax
	subq	-72(%rbp), %rax
	movq	%rax, %rdx
	.loc 13 91 9
	movq	-80(%rbp), %rax
	movq	%rdx, (%rax)
.L225:
	.loc 13 93 14
	movl	-28(%rbp), %ebx
	.loc 13 66 15
	leaq	-44(%rbp), %rax
	movq	%rax, %rdi
	call	_ZZN9__gnu_cxx6__stoaIlicJiEEET0_PFT_PKT1_PPS3_DpT2_EPKcS5_PmS9_EN11_Save_errnoD1Ev
	.loc 13 93 14
	movl	%ebx, %eax
	jmp	.L229
.L228:
	.loc 13 66 15
	movq	%rax, %rbx
	leaq	-44(%rbp), %rax
	movq	%rax, %rdi
	call	_ZZN9__gnu_cxx6__stoaIlicJiEEET0_PFT_PKT1_PPS3_DpT2_EPKcS5_PmS9_EN11_Save_errnoD1Ev
	movq	%rbx, %rax
	movq	%rax, %rdi
.LEHB51:
	call	_Unwind_Resume@PLT
.LEHE51:
.L229:
	.loc 13 94 5
	movq	-8(%rbp), %rbx
	leave
	.cfi_def_cfa 7, 8
	ret
	.cfi_endproc
.LFE4214:
	.section	.gcc_except_table
.LLSDA4214:
	.byte	0xff
	.byte	0xff
	.byte	0x1
	.uleb128 .LLSDACSE4214-.LLSDACSB4214
.LLSDACSB4214:
	.uleb128 .LEHB50-.LFB4214
	.uleb128 .LEHE50-.LEHB50
	.uleb128 .L228-.LFB4214
	.uleb128 0
	.uleb128 .LEHB51-.LFB4214
	.uleb128 .LEHE51-.LEHB51
	.uleb128 0
	.uleb128 0
.LLSDACSE4214:
	.section	.text._ZN9__gnu_cxx6__stoaIlicJiEEET0_PFT_PKT1_PPS3_DpT2_EPKcS5_PmS9_,"axG",@progbits,_ZN9__gnu_cxx6__stoaIlicJiEEET0_PFT_PKT1_PPS3_DpT2_EPKcS5_PmS9_,comdat
	.size	_ZN9__gnu_cxx6__stoaIlicJiEEET0_PFT_PKT1_PPS3_DpT2_EPKcS5_PmS9_, .-_ZN9__gnu_cxx6__stoaIlicJiEEET0_PFT_PKT1_PPS3_DpT2_EPKcS5_PmS9_
	.section	.text._ZNSt7__cxx1112basic_stringIcSt11char_traitsIcESaIcEE12_Alloc_hiderD2Ev,"axG",@progbits,_ZNSt7__cxx1112basic_stringIcSt11char_traitsIcESaIcEE12_Alloc_hiderD5Ev,comdat
	.align 2
	.weak	_ZNSt7__cxx1112basic_stringIcSt11char_traitsIcESaIcEE12_Alloc_hiderD2Ev
	.type	_ZNSt7__cxx1112basic_stringIcSt11char_traitsIcESaIcEE12_Alloc_hiderD2Ev, @function
_ZNSt7__cxx1112basic_stringIcSt11char_traitsIcESaIcEE12_Alloc_hiderD2Ev:
.LFB4294:
	.loc 5 150 14
	.cfi_startproc
	pushq	%rbp
	.cfi_def_cfa_offset 16
	.cfi_offset 6, -16
	movq	%rsp, %rbp
	.cfi_def_cfa_register 6
	subq	$16, %rsp
	movq	%rdi, -8(%rbp)
.LBB84:
	.loc 5 150 14
	movq	-8(%rbp), %rax
	movq	%rax, %rdi
	call	_ZNSaIcED2Ev@PLT
.LBE84:
	nop
	leave
	.cfi_def_cfa 7, 8
	ret
	.cfi_endproc
.LFE4294:
	.size	_ZNSt7__cxx1112basic_stringIcSt11char_traitsIcESaIcEE12_Alloc_hiderD2Ev, .-_ZNSt7__cxx1112basic_stringIcSt11char_traitsIcESaIcEE12_Alloc_hiderD2Ev
	.weak	_ZNSt7__cxx1112basic_stringIcSt11char_traitsIcESaIcEE12_Alloc_hiderD1Ev
	.set	_ZNSt7__cxx1112basic_stringIcSt11char_traitsIcESaIcEE12_Alloc_hiderD1Ev,_ZNSt7__cxx1112basic_stringIcSt11char_traitsIcESaIcEE12_Alloc_hiderD2Ev
	.section	.text._ZNSt7__cxx1112basic_stringIcSt11char_traitsIcESaIcEED2Ev,"axG",@progbits,_ZNSt7__cxx1112basic_stringIcSt11char_traitsIcESaIcEED5Ev,comdat
	.align 2
	.weak	_ZNSt7__cxx1112basic_stringIcSt11char_traitsIcESaIcEED2Ev
	.type	_ZNSt7__cxx1112basic_stringIcSt11char_traitsIcESaIcEED2Ev, @function
_ZNSt7__cxx1112basic_stringIcSt11char_traitsIcESaIcEED2Ev:
.LFB4299:
	.loc 5 657 7
	.cfi_startproc
	.cfi_personality 0x9b,DW.ref.__gxx_personality_v0
	.cfi_lsda 0x1b,.LLSDA4299
	pushq	%rbp
	.cfi_def_cfa_offset 16
	.cfi_offset 6, -16
	movq	%rsp, %rbp
	.cfi_def_cfa_register 6
	subq	$16, %rsp
	movq	%rdi, -8(%rbp)
.LBB85:
	.loc 5 658 19
	movq	-8(%rbp), %rax
	movq	%rax, %rdi
	call	_ZNSt7__cxx1112basic_stringIcSt11char_traitsIcESaIcEE10_M_disposeEv
	.loc 5 658 23
	movq	-8(%rbp), %rax
	movq	%rax, %rdi
	call	_ZNSt7__cxx1112basic_stringIcSt11char_traitsIcESaIcEE12_Alloc_hiderD1Ev
.LBE85:
	nop
	leave
	.cfi_def_cfa 7, 8
	ret
	.cfi_endproc
.LFE4299:
	.section	.gcc_except_table
.LLSDA4299:
	.byte	0xff
	.byte	0xff
	.byte	0x1
	.uleb128 .LLSDACSE4299-.LLSDACSB4299
.LLSDACSB4299:
.LLSDACSE4299:
	.section	.text._ZNSt7__cxx1112basic_stringIcSt11char_traitsIcESaIcEED2Ev,"axG",@progbits,_ZNSt7__cxx1112basic_stringIcSt11char_traitsIcESaIcEED5Ev,comdat
	.size	_ZNSt7__cxx1112basic_stringIcSt11char_traitsIcESaIcEED2Ev, .-_ZNSt7__cxx1112basic_stringIcSt11char_traitsIcESaIcEED2Ev
	.weak	_ZNSt7__cxx1112basic_stringIcSt11char_traitsIcESaIcEED1Ev
	.set	_ZNSt7__cxx1112basic_stringIcSt11char_traitsIcESaIcEED1Ev,_ZNSt7__cxx1112basic_stringIcSt11char_traitsIcESaIcEED2Ev
	.section	.text._ZNKSt7__cxx1112basic_stringIcSt11char_traitsIcESaIcEE4sizeEv,"axG",@progbits,_ZNKSt7__cxx1112basic_stringIcSt11char_traitsIcESaIcEE4sizeEv,comdat
	.align 2
	.weak	_ZNKSt7__cxx1112basic_stringIcSt11char_traitsIcESaIcEE4sizeEv
	.type	_ZNKSt7__cxx1112basic_stringIcSt11char_traitsIcESaIcEE4sizeEv, @function
_ZNKSt7__cxx1112basic_stringIcSt11char_traitsIcESaIcEE4sizeEv:
.LFB4306:
	.loc 5 901 7
	.cfi_startproc
	pushq	%rbp
	.cfi_def_cfa_offset 16
	.cfi_offset 6, -16
	movq	%rsp, %rbp
	.cfi_def_cfa_register 6
	movq	%rdi, -8(%rbp)
	.loc 5 902 16
	movq	-8(%rbp), %rax
	movq	8(%rax), %rax
	.loc 5 902 34
	popq	%rbp
	.cfi_def_cfa 7, 8
	ret
	.cfi_endproc
.LFE4306:
	.size	_ZNKSt7__cxx1112basic_stringIcSt11char_traitsIcESaIcEE4sizeEv, .-_ZNKSt7__cxx1112basic_stringIcSt11char_traitsIcESaIcEE4sizeEv
	.section	.text._ZNKSt7__cxx1112basic_stringIcSt11char_traitsIcESaIcEE4dataEv,"axG",@progbits,_ZNKSt7__cxx1112basic_stringIcSt11char_traitsIcESaIcEE4dataEv,comdat
	.align 2
	.weak	_ZNKSt7__cxx1112basic_stringIcSt11char_traitsIcESaIcEE4dataEv
	.type	_ZNKSt7__cxx1112basic_stringIcSt11char_traitsIcESaIcEE4dataEv, @function
_ZNKSt7__cxx1112basic_stringIcSt11char_traitsIcESaIcEE4dataEv:
.LFB4390:
	.loc 5 2311 7
	.cfi_startproc
	pushq	%rbp
	.cfi_def_cfa_offset 16
	.cfi_offset 6, -16
	movq	%rsp, %rbp
	.cfi_def_cfa_register 6
	subq	$16, %rsp
	movq	%rdi, -8(%rbp)
	.loc 5 2312 23
	movq	-8(%rbp), %rax
	movq	%rax, %rdi
	call	_ZNKSt7__cxx1112basic_stringIcSt11char_traitsIcESaIcEE7_M_dataEv
	.loc 5 2312 27
	leave
	.cfi_def_cfa 7, 8
	ret
	.cfi_endproc
.LFE4390:
	.size	_ZNKSt7__cxx1112basic_stringIcSt11char_traitsIcESaIcEE4dataEv, .-_ZNKSt7__cxx1112basic_stringIcSt11char_traitsIcESaIcEE4dataEv
	.section	.text._ZNKSt7__cxx1112basic_stringIcSt11char_traitsIcESaIcEE6lengthEv,"axG",@progbits,_ZNKSt7__cxx1112basic_stringIcSt11char_traitsIcESaIcEE6lengthEv,comdat
	.align 2
	.weak	_ZNKSt7__cxx1112basic_stringIcSt11char_traitsIcESaIcEE6lengthEv
	.type	_ZNKSt7__cxx1112basic_stringIcSt11char_traitsIcESaIcEE6lengthEv, @function
_ZNKSt7__cxx1112basic_stringIcSt11char_traitsIcESaIcEE6lengthEv:
.LFB4391:
	.loc 5 907 7
	.cfi_startproc
	pushq	%rbp
	.cfi_def_cfa_offset 16
	.cfi_offset 6, -16
	movq	%rsp, %rbp
	.cfi_def_cfa_register 6
	movq	%rdi, -8(%rbp)
	.loc 5 908 16
	movq	-8(%rbp), %rax
	movq	8(%rax), %rax
	.loc 5 908 34
	popq	%rbp
	.cfi_def_cfa 7, 8
	ret
	.cfi_endproc
.LFE4391:
	.size	_ZNKSt7__cxx1112basic_stringIcSt11char_traitsIcESaIcEE6lengthEv, .-_ZNKSt7__cxx1112basic_stringIcSt11char_traitsIcESaIcEE6lengthEv
	.section	.text._ZSt3maxImERKT_S2_S2_,"axG",@progbits,_ZSt3maxImERKT_S2_S2_,comdat
	.weak	_ZSt3maxImERKT_S2_S2_
	.type	_ZSt3maxImERKT_S2_S2_, @function
_ZSt3maxImERKT_S2_S2_:
.LFB4462:
	.loc 7 254 5
	.cfi_startproc
	pushq	%rbp
	.cfi_def_cfa_offset 16
	.cfi_offset 6, -16
	movq	%rsp, %rbp
	.cfi_def_cfa_register 6
	movq	%rdi, -8(%rbp)
	movq	%rsi, -16(%rbp)
	.loc 7 259 15
	movq	-8(%rbp), %rax
	movq	(%rax), %rdx
	movq	-16(%rbp), %rax
	movq	(%rax), %rax
	.loc 7 259 7
	cmpq	%rax, %rdx
	jnb	.L239
	.loc 7 260 9
	movq	-16(%rbp), %rax
	jmp	.L240
.L239:
	.loc 7 261 14
	movq	-8(%rbp), %rax
.L240:
	.loc 7 262 5
	popq	%rbp
	.cfi_def_cfa 7, 8
	ret
	.cfi_endproc
.LFE4462:
	.size	_ZSt3maxImERKT_S2_S2_, .-_ZSt3maxImERKT_S2_S2_
	.section	.text._ZSt7forwardIiEOT_RNSt16remove_referenceIS0_E4typeE,"axG",@progbits,_ZSt7forwardIiEOT_RNSt16remove_referenceIS0_E4typeE,comdat
	.weak	_ZSt7forwardIiEOT_RNSt16remove_referenceIS0_E4typeE
	.type	_ZSt7forwardIiEOT_RNSt16remove_referenceIS0_E4typeE, @function
_ZSt7forwardIiEOT_RNSt16remove_referenceIS0_E4typeE:
.LFB4467:
	.file 14 "/usr/include/c++/10/bits/move.h"
	.loc 14 76 5
	.cfi_startproc
	pushq	%rbp
	.cfi_def_cfa_offset 16
	.cfi_offset 6, -16
	movq	%rsp, %rbp
	.cfi_def_cfa_register 6
	movq	%rdi, -8(%rbp)
	.loc 14 77 36
	movq	-8(%rbp), %rax
	.loc 14 77 39
	popq	%rbp
	.cfi_def_cfa 7, 8
	ret
	.cfi_endproc
.LFE4467:
	.size	_ZSt7forwardIiEOT_RNSt16remove_referenceIS0_E4typeE, .-_ZSt7forwardIiEOT_RNSt16remove_referenceIS0_E4typeE
	.section	.text._ZNSt5dequeIiSaIiEEC2Ev,"axG",@progbits,_ZNSt5dequeIiSaIiEEC5Ev,comdat
	.align 2
	.weak	_ZNSt5dequeIiSaIiEEC2Ev
	.type	_ZNSt5dequeIiSaIiEEC2Ev, @function
_ZNSt5dequeIiSaIiEEC2Ev:
.LFB4502:
	.loc 8 831 7
	.cfi_startproc
	pushq	%rbp
	.cfi_def_cfa_offset 16
	.cfi_offset 6, -16
	movq	%rsp, %rbp
	.cfi_def_cfa_register 6
	subq	$16, %rsp
	movq	%rdi, -8(%rbp)
.LBB86:
	.loc 8 831 7
	movq	-8(%rbp), %rax
	movq	%rax, %rdi
	call	_ZNSt11_Deque_baseIiSaIiEEC2Ev
.LBE86:
	nop
	leave
	.cfi_def_cfa 7, 8
	ret
	.cfi_endproc
.LFE4502:
	.size	_ZNSt5dequeIiSaIiEEC2Ev, .-_ZNSt5dequeIiSaIiEEC2Ev
	.weak	_ZNSt5dequeIiSaIiEEC1Ev
	.set	_ZNSt5dequeIiSaIiEEC1Ev,_ZNSt5dequeIiSaIiEEC2Ev
	.section	.text._ZNSt5queueIiSt5dequeIiSaIiEEEC2IS2_vEEv,"axG",@progbits,_ZNSt5queueIiSt5dequeIiSaIiEEEC5IS2_vEEv,comdat
	.align 2
	.weak	_ZNSt5queueIiSt5dequeIiSaIiEEEC2IS2_vEEv
	.type	_ZNSt5queueIiSt5dequeIiSaIiEEEC2IS2_vEEv, @function
_ZNSt5queueIiSt5dequeIiSaIiEEEC2IS2_vEEv:
.LFB4504:
	.file 15 "/usr/include/c++/10/bits/stl_queue.h"
	.loc 15 166 2
	.cfi_startproc
	pushq	%rbp
	.cfi_def_cfa_offset 16
	.cfi_offset 6, -16
	movq	%rsp, %rbp
	.cfi_def_cfa_register 6
	subq	$16, %rsp
	movq	%rdi, -8(%rbp)
.LBB87:
	.loc 15 167 6
	movq	-8(%rbp), %rax
	movq	$0, (%rax)
	movq	$0, 8(%rax)
	movq	$0, 16(%rax)
	movq	$0, 24(%rax)
	movq	$0, 32(%rax)
	movq	$0, 40(%rax)
	movq	$0, 48(%rax)
	movq	$0, 56(%rax)
	movq	$0, 64(%rax)
	movq	$0, 72(%rax)
	movq	-8(%rbp), %rax
	movq	%rax, %rdi
	call	_ZNSt5dequeIiSaIiEEC1Ev
.LBE87:
	.loc 15 167 10
	nop
	leave
	.cfi_def_cfa 7, 8
	ret
	.cfi_endproc
.LFE4504:
	.size	_ZNSt5queueIiSt5dequeIiSaIiEEEC2IS2_vEEv, .-_ZNSt5queueIiSt5dequeIiSaIiEEEC2IS2_vEEv
	.weak	_ZNSt5queueIiSt5dequeIiSaIiEEEC1IS2_vEEv
	.set	_ZNSt5queueIiSt5dequeIiSaIiEEEC1IS2_vEEv,_ZNSt5queueIiSt5dequeIiSaIiEEEC2IS2_vEEv
	.section	.text._ZSt7forwardIRA9_KcEOT_RNSt16remove_referenceIS3_E4typeE,"axG",@progbits,_ZSt7forwardIRA9_KcEOT_RNSt16remove_referenceIS3_E4typeE,comdat
	.weak	_ZSt7forwardIRA9_KcEOT_RNSt16remove_referenceIS3_E4typeE
	.type	_ZSt7forwardIRA9_KcEOT_RNSt16remove_referenceIS3_E4typeE, @function
_ZSt7forwardIRA9_KcEOT_RNSt16remove_referenceIS3_E4typeE:
.LFB4506:
	.loc 14 76 5
	.cfi_startproc
	pushq	%rbp
	.cfi_def_cfa_offset 16
	.cfi_offset 6, -16
	movq	%rsp, %rbp
	.cfi_def_cfa_register 6
	movq	%rdi, -8(%rbp)
	.loc 14 77 36
	movq	-8(%rbp), %rax
	.loc 14 77 39
	popq	%rbp
	.cfi_def_cfa 7, 8
	ret
	.cfi_endproc
.LFE4506:
	.size	_ZSt7forwardIRA9_KcEOT_RNSt16remove_referenceIS3_E4typeE, .-_ZSt7forwardIRA9_KcEOT_RNSt16remove_referenceIS3_E4typeE
	.section	.text._ZNSt7__cxx1112basic_stringIcSt11char_traitsIcESaIcEEC2IS3_EEPKcRKS3_,"axG",@progbits,_ZNSt7__cxx1112basic_stringIcSt11char_traitsIcESaIcEEC5IS3_EEPKcRKS3_,comdat
	.align 2
	.weak	_ZNSt7__cxx1112basic_stringIcSt11char_traitsIcESaIcEEC2IS3_EEPKcRKS3_
	.type	_ZNSt7__cxx1112basic_stringIcSt11char_traitsIcESaIcEEC2IS3_EEPKcRKS3_, @function
_ZNSt7__cxx1112basic_stringIcSt11char_traitsIcESaIcEEC2IS3_EEPKcRKS3_:
.LFB4508:
	.loc 5 525 7
	.cfi_startproc
	.cfi_personality 0x9b,DW.ref.__gxx_personality_v0
	.cfi_lsda 0x1b,.LLSDA4508
	pushq	%rbp
	.cfi_def_cfa_offset 16
	.cfi_offset 6, -16
	movq	%rsp, %rbp
	.cfi_def_cfa_register 6
	pushq	%rbx
	subq	$40, %rsp
	.cfi_offset 3, -24
	movq	%rdi, -24(%rbp)
	movq	%rsi, -32(%rbp)
	movq	%rdx, -40(%rbp)
.LBB88:
	.loc 5 526 41
	movq	-24(%rbp), %rbx
	movq	-24(%rbp), %rax
	movq	%rax, %rdi
	call	_ZNSt7__cxx1112basic_stringIcSt11char_traitsIcESaIcEE13_M_local_dataEv
	movq	%rax, %rcx
	movq	-40(%rbp), %rax
	movq	%rax, %rdx
	movq	%rcx, %rsi
	movq	%rbx, %rdi
	call	_ZNSt7__cxx1112basic_stringIcSt11char_traitsIcESaIcEE12_Alloc_hiderC1EPcRKS3_
	.loc 5 527 21
	cmpq	$0, -32(%rbp)
	je	.L248
	.loc 5 527 58 discriminator 1
	movq	-32(%rbp), %rax
	movq	%rax, %rdi
.LEHB52:
	call	_ZNSt11char_traitsIcE6lengthEPKc
	.loc 5 527 21 discriminator 1
	movq	-32(%rbp), %rdx
	addq	%rdx, %rax
	jmp	.L249
.L248:
	.loc 5 527 21 is_stmt 0 discriminator 2
	movq	-32(%rbp), %rax
	subq	$1, %rax
.L249:
	.loc 5 527 21 discriminator 5
	movq	-32(%rbp), %rsi
	movq	-24(%rbp), %rcx
	movq	%rax, %rdx
	movq	%rcx, %rdi
	call	_ZNSt7__cxx1112basic_stringIcSt11char_traitsIcESaIcEE12_M_constructIPKcEEvT_S8_
.LEHE52:
.LBE88:
	.loc 5 527 77 is_stmt 1
	jmp	.L252
.L251:
.LBB89:
	.loc 5 526 41
	movq	%rax, %rbx
	movq	-24(%rbp), %rax
	movq	%rax, %rdi
	call	_ZNSt7__cxx1112basic_stringIcSt11char_traitsIcESaIcEE12_Alloc_hiderD1Ev
	movq	%rbx, %rax
	movq	%rax, %rdi
.LEHB53:
	call	_Unwind_Resume@PLT
.LEHE53:
.L252:
.LBE89:
	.loc 5 527 77
	movq	-8(%rbp), %rbx
	leave
	.cfi_def_cfa 7, 8
	ret
	.cfi_endproc
.LFE4508:
	.section	.gcc_except_table
.LLSDA4508:
	.byte	0xff
	.byte	0xff
	.byte	0x1
	.uleb128 .LLSDACSE4508-.LLSDACSB4508
.LLSDACSB4508:
	.uleb128 .LEHB52-.LFB4508
	.uleb128 .LEHE52-.LEHB52
	.uleb128 .L251-.LFB4508
	.uleb128 0
	.uleb128 .LEHB53-.LFB4508
	.uleb128 .LEHE53-.LEHB53
	.uleb128 0
	.uleb128 0
.LLSDACSE4508:
	.section	.text._ZNSt7__cxx1112basic_stringIcSt11char_traitsIcESaIcEEC2IS3_EEPKcRKS3_,"axG",@progbits,_ZNSt7__cxx1112basic_stringIcSt11char_traitsIcESaIcEEC5IS3_EEPKcRKS3_,comdat
	.size	_ZNSt7__cxx1112basic_stringIcSt11char_traitsIcESaIcEEC2IS3_EEPKcRKS3_, .-_ZNSt7__cxx1112basic_stringIcSt11char_traitsIcESaIcEEC2IS3_EEPKcRKS3_
	.weak	_ZNSt7__cxx1112basic_stringIcSt11char_traitsIcESaIcEEC1IS3_EEPKcRKS3_
	.set	_ZNSt7__cxx1112basic_stringIcSt11char_traitsIcESaIcEEC1IS3_EEPKcRKS3_,_ZNSt7__cxx1112basic_stringIcSt11char_traitsIcESaIcEEC2IS3_EEPKcRKS3_
	.section	.text._ZSt7forwardIRA11_KcEOT_RNSt16remove_referenceIS3_E4typeE,"axG",@progbits,_ZSt7forwardIRA11_KcEOT_RNSt16remove_referenceIS3_E4typeE,comdat
	.weak	_ZSt7forwardIRA11_KcEOT_RNSt16remove_referenceIS3_E4typeE
	.type	_ZSt7forwardIRA11_KcEOT_RNSt16remove_referenceIS3_E4typeE, @function
_ZSt7forwardIRA11_KcEOT_RNSt16remove_referenceIS3_E4typeE:
.LFB4510:
	.loc 14 76 5
	.cfi_startproc
	pushq	%rbp
	.cfi_def_cfa_offset 16
	.cfi_offset 6, -16
	movq	%rsp, %rbp
	.cfi_def_cfa_register 6
	movq	%rdi, -8(%rbp)
	.loc 14 77 36
	movq	-8(%rbp), %rax
	.loc 14 77 39
	popq	%rbp
	.cfi_def_cfa 7, 8
	ret
	.cfi_endproc
.LFE4510:
	.size	_ZSt7forwardIRA11_KcEOT_RNSt16remove_referenceIS3_E4typeE, .-_ZSt7forwardIRA11_KcEOT_RNSt16remove_referenceIS3_E4typeE
	.section	.text._ZSt7forwardIRA10_KcEOT_RNSt16remove_referenceIS3_E4typeE,"axG",@progbits,_ZSt7forwardIRA10_KcEOT_RNSt16remove_referenceIS3_E4typeE,comdat
	.weak	_ZSt7forwardIRA10_KcEOT_RNSt16remove_referenceIS3_E4typeE
	.type	_ZSt7forwardIRA10_KcEOT_RNSt16remove_referenceIS3_E4typeE, @function
_ZSt7forwardIRA10_KcEOT_RNSt16remove_referenceIS3_E4typeE:
.LFB4511:
	.loc 14 76 5
	.cfi_startproc
	pushq	%rbp
	.cfi_def_cfa_offset 16
	.cfi_offset 6, -16
	movq	%rsp, %rbp
	.cfi_def_cfa_register 6
	movq	%rdi, -8(%rbp)
	.loc 14 77 36
	movq	-8(%rbp), %rax
	.loc 14 77 39
	popq	%rbp
	.cfi_def_cfa 7, 8
	ret
	.cfi_endproc
.LFE4511:
	.size	_ZSt7forwardIRA10_KcEOT_RNSt16remove_referenceIS3_E4typeE, .-_ZSt7forwardIRA10_KcEOT_RNSt16remove_referenceIS3_E4typeE
	.section	.text._ZSt7forwardIRA6_KcEOT_RNSt16remove_referenceIS3_E4typeE,"axG",@progbits,_ZSt7forwardIRA6_KcEOT_RNSt16remove_referenceIS3_E4typeE,comdat
	.weak	_ZSt7forwardIRA6_KcEOT_RNSt16remove_referenceIS3_E4typeE
	.type	_ZSt7forwardIRA6_KcEOT_RNSt16remove_referenceIS3_E4typeE, @function
_ZSt7forwardIRA6_KcEOT_RNSt16remove_referenceIS3_E4typeE:
.LFB4512:
	.loc 14 76 5
	.cfi_startproc
	pushq	%rbp
	.cfi_def_cfa_offset 16
	.cfi_offset 6, -16
	movq	%rsp, %rbp
	.cfi_def_cfa_register 6
	movq	%rdi, -8(%rbp)
	.loc 14 77 36
	movq	-8(%rbp), %rax
	.loc 14 77 39
	popq	%rbp
	.cfi_def_cfa 7, 8
	ret
	.cfi_endproc
.LFE4512:
	.size	_ZSt7forwardIRA6_KcEOT_RNSt16remove_referenceIS3_E4typeE, .-_ZSt7forwardIRA6_KcEOT_RNSt16remove_referenceIS3_E4typeE
	.section	.text._ZNSaISt4pairIKNSt7__cxx1112basic_stringIcSt11char_traitsIcESaIcEEEiEEC2Ev,"axG",@progbits,_ZNSaISt4pairIKNSt7__cxx1112basic_stringIcSt11char_traitsIcESaIcEEEiEEC5Ev,comdat
	.align 2
	.weak	_ZNSaISt4pairIKNSt7__cxx1112basic_stringIcSt11char_traitsIcESaIcEEEiEEC2Ev
	.type	_ZNSaISt4pairIKNSt7__cxx1112basic_stringIcSt11char_traitsIcESaIcEEEiEEC2Ev, @function
_ZNSaISt4pairIKNSt7__cxx1112basic_stringIcSt11char_traitsIcESaIcEEEiEEC2Ev:
.LFB4514:
	.file 16 "/usr/include/c++/10/bits/allocator.h"
	.loc 16 144 7
	.cfi_startproc
	pushq	%rbp
	.cfi_def_cfa_offset 16
	.cfi_offset 6, -16
	movq	%rsp, %rbp
	.cfi_def_cfa_register 6
	subq	$16, %rsp
	movq	%rdi, -8(%rbp)
.LBB90:
	.loc 16 144 36
	movq	-8(%rbp), %rax
	movq	%rax, %rdi
	call	_ZN9__gnu_cxx13new_allocatorISt4pairIKNSt7__cxx1112basic_stringIcSt11char_traitsIcESaIcEEEiEEC2Ev
.LBE90:
	.loc 16 144 38
	nop
	leave
	.cfi_def_cfa 7, 8
	ret
	.cfi_endproc
.LFE4514:
	.size	_ZNSaISt4pairIKNSt7__cxx1112basic_stringIcSt11char_traitsIcESaIcEEEiEEC2Ev, .-_ZNSaISt4pairIKNSt7__cxx1112basic_stringIcSt11char_traitsIcESaIcEEEiEEC2Ev
	.weak	_ZNSaISt4pairIKNSt7__cxx1112basic_stringIcSt11char_traitsIcESaIcEEEiEEC1Ev
	.set	_ZNSaISt4pairIKNSt7__cxx1112basic_stringIcSt11char_traitsIcESaIcEEEiEEC1Ev,_ZNSaISt4pairIKNSt7__cxx1112basic_stringIcSt11char_traitsIcESaIcEEEiEEC2Ev
	.section	.text._ZNSaISt4pairIKNSt7__cxx1112basic_stringIcSt11char_traitsIcESaIcEEEiEED2Ev,"axG",@progbits,_ZNSaISt4pairIKNSt7__cxx1112basic_stringIcSt11char_traitsIcESaIcEEEiEED5Ev,comdat
	.align 2
	.weak	_ZNSaISt4pairIKNSt7__cxx1112basic_stringIcSt11char_traitsIcESaIcEEEiEED2Ev
	.type	_ZNSaISt4pairIKNSt7__cxx1112basic_stringIcSt11char_traitsIcESaIcEEEiEED2Ev, @function
_ZNSaISt4pairIKNSt7__cxx1112basic_stringIcSt11char_traitsIcESaIcEEEiEED2Ev:
.LFB4517:
	.loc 16 162 7
	.cfi_startproc
	pushq	%rbp
	.cfi_def_cfa_offset 16
	.cfi_offset 6, -16
	movq	%rsp, %rbp
	.cfi_def_cfa_register 6
	movq	%rdi, -8(%rbp)
	.loc 16 162 39
	nop
	popq	%rbp
	.cfi_def_cfa 7, 8
	ret
	.cfi_endproc
.LFE4517:
	.size	_ZNSaISt4pairIKNSt7__cxx1112basic_stringIcSt11char_traitsIcESaIcEEEiEED2Ev, .-_ZNSaISt4pairIKNSt7__cxx1112basic_stringIcSt11char_traitsIcESaIcEEEiEED2Ev
	.weak	_ZNSaISt4pairIKNSt7__cxx1112basic_stringIcSt11char_traitsIcESaIcEEEiEED1Ev
	.set	_ZNSaISt4pairIKNSt7__cxx1112basic_stringIcSt11char_traitsIcESaIcEEEiEED1Ev,_ZNSaISt4pairIKNSt7__cxx1112basic_stringIcSt11char_traitsIcESaIcEEEiEED2Ev
	.section	.text._ZNSt13unordered_mapINSt7__cxx1112basic_stringIcSt11char_traitsIcESaIcEEEiSt4hashIS5_ESt8equal_toIS5_ESaISt4pairIKS5_iEEEC2ESt16initializer_listISC_EmRKS7_RKS9_RKSD_,"axG",@progbits,_ZNSt13unordered_mapINSt7__cxx1112basic_stringIcSt11char_traitsIcESaIcEEEiSt4hashIS5_ESt8equal_toIS5_ESaISt4pairIKS5_iEEEC5ESt16initializer_listISC_EmRKS7_RKS9_RKSD_,comdat
	.align 2
	.weak	_ZNSt13unordered_mapINSt7__cxx1112basic_stringIcSt11char_traitsIcESaIcEEEiSt4hashIS5_ESt8equal_toIS5_ESaISt4pairIKS5_iEEEC2ESt16initializer_listISC_EmRKS7_RKS9_RKSD_
	.type	_ZNSt13unordered_mapINSt7__cxx1112basic_stringIcSt11char_traitsIcESaIcEEEiSt4hashIS5_ESt8equal_toIS5_ESaISt4pairIKS5_iEEEC2ESt16initializer_listISC_EmRKS7_RKS9_RKSD_, @function
_ZNSt13unordered_mapINSt7__cxx1112basic_stringIcSt11char_traitsIcESaIcEEEiSt4hashIS5_ESt8equal_toIS5_ESaISt4pairIKS5_iEEEC2ESt16initializer_listISC_EmRKS7_RKS9_RKSD_:
.LFB4520:
	.loc 10 226 7
	.cfi_startproc
	pushq	%rbp
	.cfi_def_cfa_offset 16
	.cfi_offset 6, -16
	movq	%rsp, %rbp
	.cfi_def_cfa_register 6
	subq	$48, %rsp
	movq	%rdi, -8(%rbp)
	movq	%rsi, %rax
	movq	%rdx, %rsi
	movq	%rsi, %rdx
	movq	%rax, -32(%rbp)
	movq	%rdx, -24(%rbp)
	movq	%rcx, -16(%rbp)
	movq	%r8, -40(%rbp)
	movq	%r9, -48(%rbp)
.LBB91:
	.loc 10 231 40
	movq	-8(%rbp), %rax
	movq	-48(%rbp), %r8
	movq	-40(%rbp), %rdi
	movq	-16(%rbp), %rcx
	movq	-32(%rbp), %rsi
	movq	-24(%rbp), %rdx
	subq	$8, %rsp
	pushq	16(%rbp)
	movq	%r8, %r9
	movq	%rdi, %r8
	movq	%rax, %rdi
	call	_ZNSt10_HashtableINSt7__cxx1112basic_stringIcSt11char_traitsIcESaIcEEESt4pairIKS5_iESaIS8_ENSt8__detail10_Select1stESt8equal_toIS5_ESt4hashIS5_ENSA_18_Mod_range_hashingENSA_20_Default_ranged_hashENSA_20_Prime_rehash_policyENSA_17_Hashtable_traitsILb1ELb0ELb1EEEEC1ESt16initializer_listIS8_EmRKSF_RKSD_RKS9_
	addq	$16, %rsp
.LBE91:
	.loc 10 232 9
	nop
	leave
	.cfi_def_cfa 7, 8
	ret
	.cfi_endproc
.LFE4520:
	.size	_ZNSt13unordered_mapINSt7__cxx1112basic_stringIcSt11char_traitsIcESaIcEEEiSt4hashIS5_ESt8equal_toIS5_ESaISt4pairIKS5_iEEEC2ESt16initializer_listISC_EmRKS7_RKS9_RKSD_, .-_ZNSt13unordered_mapINSt7__cxx1112basic_stringIcSt11char_traitsIcESaIcEEEiSt4hashIS5_ESt8equal_toIS5_ESaISt4pairIKS5_iEEEC2ESt16initializer_listISC_EmRKS7_RKS9_RKSD_
	.weak	_ZNSt13unordered_mapINSt7__cxx1112basic_stringIcSt11char_traitsIcESaIcEEEiSt4hashIS5_ESt8equal_toIS5_ESaISt4pairIKS5_iEEEC1ESt16initializer_listISC_EmRKS7_RKS9_RKSD_
	.set	_ZNSt13unordered_mapINSt7__cxx1112basic_stringIcSt11char_traitsIcESaIcEEEiSt4hashIS5_ESt8equal_toIS5_ESaISt4pairIKS5_iEEEC1ESt16initializer_listISC_EmRKS7_RKS9_RKSD_,_ZNSt13unordered_mapINSt7__cxx1112basic_stringIcSt11char_traitsIcESaIcEEEiSt4hashIS5_ESt8equal_toIS5_ESaISt4pairIKS5_iEEEC2ESt16initializer_listISC_EmRKS7_RKS9_RKSD_
	.section	.text._ZNSt8__detail21_Hashtable_ebo_helperILi0ESaINS_10_Hash_nodeISt4pairIKNSt7__cxx1112basic_stringIcSt11char_traitsIcESaIcEEEiELb1EEEELb1EED2Ev,"axG",@progbits,_ZNSt8__detail21_Hashtable_ebo_helperILi0ESaINS_10_Hash_nodeISt4pairIKNSt7__cxx1112basic_stringIcSt11char_traitsIcESaIcEEEiELb1EEEELb1EED5Ev,comdat
	.align 2
	.weak	_ZNSt8__detail21_Hashtable_ebo_helperILi0ESaINS_10_Hash_nodeISt4pairIKNSt7__cxx1112basic_stringIcSt11char_traitsIcESaIcEEEiELb1EEEELb1EED2Ev
	.type	_ZNSt8__detail21_Hashtable_ebo_helperILi0ESaINS_10_Hash_nodeISt4pairIKNSt7__cxx1112basic_stringIcSt11char_traitsIcESaIcEEEiELb1EEEELb1EED2Ev, @function
_ZNSt8__detail21_Hashtable_ebo_helperILi0ESaINS_10_Hash_nodeISt4pairIKNSt7__cxx1112basic_stringIcSt11char_traitsIcESaIcEEEiELb1EEEELb1EED2Ev:
.LFB4525:
	.loc 6 1109 12
	.cfi_startproc
	pushq	%rbp
	.cfi_def_cfa_offset 16
	.cfi_offset 6, -16
	movq	%rsp, %rbp
	.cfi_def_cfa_register 6
	subq	$16, %rsp
	movq	%rdi, -8(%rbp)
.LBB92:
	.loc 6 1109 12
	movq	-8(%rbp), %rax
	movq	%rax, %rdi
	call	_ZNSaINSt8__detail10_Hash_nodeISt4pairIKNSt7__cxx1112basic_stringIcSt11char_traitsIcESaIcEEEiELb1EEEED2Ev
.LBE92:
	nop
	leave
	.cfi_def_cfa 7, 8
	ret
	.cfi_endproc
.LFE4525:
	.size	_ZNSt8__detail21_Hashtable_ebo_helperILi0ESaINS_10_Hash_nodeISt4pairIKNSt7__cxx1112basic_stringIcSt11char_traitsIcESaIcEEEiELb1EEEELb1EED2Ev, .-_ZNSt8__detail21_Hashtable_ebo_helperILi0ESaINS_10_Hash_nodeISt4pairIKNSt7__cxx1112basic_stringIcSt11char_traitsIcESaIcEEEiELb1EEEELb1EED2Ev
	.weak	_ZNSt8__detail21_Hashtable_ebo_helperILi0ESaINS_10_Hash_nodeISt4pairIKNSt7__cxx1112basic_stringIcSt11char_traitsIcESaIcEEEiELb1EEEELb1EED1Ev
	.set	_ZNSt8__detail21_Hashtable_ebo_helperILi0ESaINS_10_Hash_nodeISt4pairIKNSt7__cxx1112basic_stringIcSt11char_traitsIcESaIcEEEiELb1EEEELb1EED1Ev,_ZNSt8__detail21_Hashtable_ebo_helperILi0ESaINS_10_Hash_nodeISt4pairIKNSt7__cxx1112basic_stringIcSt11char_traitsIcESaIcEEEiELb1EEEELb1EED2Ev
	.section	.text._ZNSt8__detail16_Hashtable_allocISaINS_10_Hash_nodeISt4pairIKNSt7__cxx1112basic_stringIcSt11char_traitsIcESaIcEEEiELb1EEEEED2Ev,"axG",@progbits,_ZNSt8__detail16_Hashtable_allocISaINS_10_Hash_nodeISt4pairIKNSt7__cxx1112basic_stringIcSt11char_traitsIcESaIcEEEiELb1EEEEED5Ev,comdat
	.align 2
	.weak	_ZNSt8__detail16_Hashtable_allocISaINS_10_Hash_nodeISt4pairIKNSt7__cxx1112basic_stringIcSt11char_traitsIcESaIcEEEiELb1EEEEED2Ev
	.type	_ZNSt8__detail16_Hashtable_allocISaINS_10_Hash_nodeISt4pairIKNSt7__cxx1112basic_stringIcSt11char_traitsIcESaIcEEEiELb1EEEEED2Ev, @function
_ZNSt8__detail16_Hashtable_allocISaINS_10_Hash_nodeISt4pairIKNSt7__cxx1112basic_stringIcSt11char_traitsIcESaIcEEEiELb1EEEEED2Ev:
.LFB4527:
	.loc 6 1963 12
	.cfi_startproc
	pushq	%rbp
	.cfi_def_cfa_offset 16
	.cfi_offset 6, -16
	movq	%rsp, %rbp
	.cfi_def_cfa_register 6
	subq	$16, %rsp
	movq	%rdi, -8(%rbp)
.LBB93:
	.loc 6 1963 12
	movq	-8(%rbp), %rax
	movq	%rax, %rdi
	call	_ZNSt8__detail21_Hashtable_ebo_helperILi0ESaINS_10_Hash_nodeISt4pairIKNSt7__cxx1112basic_stringIcSt11char_traitsIcESaIcEEEiELb1EEEELb1EED2Ev
.LBE93:
	nop
	leave
	.cfi_def_cfa 7, 8
	ret
	.cfi_endproc
.LFE4527:
	.size	_ZNSt8__detail16_Hashtable_allocISaINS_10_Hash_nodeISt4pairIKNSt7__cxx1112basic_stringIcSt11char_traitsIcESaIcEEEiELb1EEEEED2Ev, .-_ZNSt8__detail16_Hashtable_allocISaINS_10_Hash_nodeISt4pairIKNSt7__cxx1112basic_stringIcSt11char_traitsIcESaIcEEEiELb1EEEEED2Ev
	.weak	_ZNSt8__detail16_Hashtable_allocISaINS_10_Hash_nodeISt4pairIKNSt7__cxx1112basic_stringIcSt11char_traitsIcESaIcEEEiELb1EEEEED1Ev
	.set	_ZNSt8__detail16_Hashtable_allocISaINS_10_Hash_nodeISt4pairIKNSt7__cxx1112basic_stringIcSt11char_traitsIcESaIcEEEiELb1EEEEED1Ev,_ZNSt8__detail16_Hashtable_allocISaINS_10_Hash_nodeISt4pairIKNSt7__cxx1112basic_stringIcSt11char_traitsIcESaIcEEEiELb1EEEEED2Ev
	.section	.text._ZNSt10_HashtableINSt7__cxx1112basic_stringIcSt11char_traitsIcESaIcEEESt4pairIKS5_iESaIS8_ENSt8__detail10_Select1stESt8equal_toIS5_ESt4hashIS5_ENSA_18_Mod_range_hashingENSA_20_Default_ranged_hashENSA_20_Prime_rehash_policyENSA_17_Hashtable_traitsILb1ELb0ELb1EEEED2Ev,"axG",@progbits,_ZNSt10_HashtableINSt7__cxx1112basic_stringIcSt11char_traitsIcESaIcEEESt4pairIKS5_iESaIS8_ENSt8__detail10_Select1stESt8equal_toIS5_ESt4hashIS5_ENSA_18_Mod_range_hashingENSA_20_Default_ranged_hashENSA_20_Prime_rehash_policyENSA_17_Hashtable_traitsILb1ELb0ELb1EEEED5Ev,comdat
	.align 2
	.weak	_ZNSt10_HashtableINSt7__cxx1112basic_stringIcSt11char_traitsIcESaIcEEESt4pairIKS5_iESaIS8_ENSt8__detail10_Select1stESt8equal_toIS5_ESt4hashIS5_ENSA_18_Mod_range_hashingENSA_20_Default_ranged_hashENSA_20_Prime_rehash_policyENSA_17_Hashtable_traitsILb1ELb0ELb1EEEED2Ev
	.type	_ZNSt10_HashtableINSt7__cxx1112basic_stringIcSt11char_traitsIcESaIcEEESt4pairIKS5_iESaIS8_ENSt8__detail10_Select1stESt8equal_toIS5_ESt4hashIS5_ENSA_18_Mod_range_hashingENSA_20_Default_ranged_hashENSA_20_Prime_rehash_policyENSA_17_Hashtable_traitsILb1ELb0ELb1EEEED2Ev, @function
_ZNSt10_HashtableINSt7__cxx1112basic_stringIcSt11char_traitsIcESaIcEEESt4pairIKS5_iESaIS8_ENSt8__detail10_Select1stESt8equal_toIS5_ESt4hashIS5_ENSA_18_Mod_range_hashingENSA_20_Default_ranged_hashENSA_20_Prime_rehash_policyENSA_17_Hashtable_traitsILb1ELb0ELb1EEEED2Ev:
.LFB4529:
	.loc 11 1383 5
	.cfi_startproc
	.cfi_personality 0x9b,DW.ref.__gxx_personality_v0
	.cfi_lsda 0x1b,.LLSDA4529
	pushq	%rbp
	.cfi_def_cfa_offset 16
	.cfi_offset 6, -16
	movq	%rsp, %rbp
	.cfi_def_cfa_register 6
	subq	$16, %rsp
	movq	%rdi, -8(%rbp)
.LBB94:
	.loc 11 1387 12
	movq	-8(%rbp), %rax
	movq	%rax, %rdi
	call	_ZNSt10_HashtableINSt7__cxx1112basic_stringIcSt11char_traitsIcESaIcEEESt4pairIKS5_iESaIS8_ENSt8__detail10_Select1stESt8equal_toIS5_ESt4hashIS5_ENSA_18_Mod_range_hashingENSA_20_Default_ranged_hashENSA_20_Prime_rehash_policyENSA_17_Hashtable_traitsILb1ELb0ELb1EEEE5clearEv
	.loc 11 1388 28
	movq	-8(%rbp), %rax
	movq	%rax, %rdi
	call	_ZNSt10_HashtableINSt7__cxx1112basic_stringIcSt11char_traitsIcESaIcEEESt4pairIKS5_iESaIS8_ENSt8__detail10_Select1stESt8equal_toIS5_ESt4hashIS5_ENSA_18_Mod_range_hashingENSA_20_Default_ranged_hashENSA_20_Prime_rehash_policyENSA_17_Hashtable_traitsILb1ELb0ELb1EEEE21_M_deallocate_bucketsEv
	.loc 11 1389 5
	movq	-8(%rbp), %rax
	movq	%rax, %rdi
	call	_ZNSt8__detail16_Hashtable_allocISaINS_10_Hash_nodeISt4pairIKNSt7__cxx1112basic_stringIcSt11char_traitsIcESaIcEEEiELb1EEEEED2Ev
.LBE94:
	nop
	leave
	.cfi_def_cfa 7, 8
	ret
	.cfi_endproc
.LFE4529:
	.section	.gcc_except_table
.LLSDA4529:
	.byte	0xff
	.byte	0xff
	.byte	0x1
	.uleb128 .LLSDACSE4529-.LLSDACSB4529
.LLSDACSB4529:
.LLSDACSE4529:
	.section	.text._ZNSt10_HashtableINSt7__cxx1112basic_stringIcSt11char_traitsIcESaIcEEESt4pairIKS5_iESaIS8_ENSt8__detail10_Select1stESt8equal_toIS5_ESt4hashIS5_ENSA_18_Mod_range_hashingENSA_20_Default_ranged_hashENSA_20_Prime_rehash_policyENSA_17_Hashtable_traitsILb1ELb0ELb1EEEED2Ev,"axG",@progbits,_ZNSt10_HashtableINSt7__cxx1112basic_stringIcSt11char_traitsIcESaIcEEESt4pairIKS5_iESaIS8_ENSt8__detail10_Select1stESt8equal_toIS5_ESt4hashIS5_ENSA_18_Mod_range_hashingENSA_20_Default_ranged_hashENSA_20_Prime_rehash_policyENSA_17_Hashtable_traitsILb1ELb0ELb1EEEED5Ev,comdat
	.size	_ZNSt10_HashtableINSt7__cxx1112basic_stringIcSt11char_traitsIcESaIcEEESt4pairIKS5_iESaIS8_ENSt8__detail10_Select1stESt8equal_toIS5_ESt4hashIS5_ENSA_18_Mod_range_hashingENSA_20_Default_ranged_hashENSA_20_Prime_rehash_policyENSA_17_Hashtable_traitsILb1ELb0ELb1EEEED2Ev, .-_ZNSt10_HashtableINSt7__cxx1112basic_stringIcSt11char_traitsIcESaIcEEESt4pairIKS5_iESaIS8_ENSt8__detail10_Select1stESt8equal_toIS5_ESt4hashIS5_ENSA_18_Mod_range_hashingENSA_20_Default_ranged_hashENSA_20_Prime_rehash_policyENSA_17_Hashtable_traitsILb1ELb0ELb1EEEED2Ev
	.weak	_ZNSt10_HashtableINSt7__cxx1112basic_stringIcSt11char_traitsIcESaIcEEESt4pairIKS5_iESaIS8_ENSt8__detail10_Select1stESt8equal_toIS5_ESt4hashIS5_ENSA_18_Mod_range_hashingENSA_20_Default_ranged_hashENSA_20_Prime_rehash_policyENSA_17_Hashtable_traitsILb1ELb0ELb1EEEED1Ev
	.set	_ZNSt10_HashtableINSt7__cxx1112basic_stringIcSt11char_traitsIcESaIcEEESt4pairIKS5_iESaIS8_ENSt8__detail10_Select1stESt8equal_toIS5_ESt4hashIS5_ENSA_18_Mod_range_hashingENSA_20_Default_ranged_hashENSA_20_Prime_rehash_policyENSA_17_Hashtable_traitsILb1ELb0ELb1EEEED1Ev,_ZNSt10_HashtableINSt7__cxx1112basic_stringIcSt11char_traitsIcESaIcEEESt4pairIKS5_iESaIS8_ENSt8__detail10_Select1stESt8equal_toIS5_ESt4hashIS5_ENSA_18_Mod_range_hashingENSA_20_Default_ranged_hashENSA_20_Prime_rehash_policyENSA_17_Hashtable_traitsILb1ELb0ELb1EEEED2Ev
	.section	.text._ZNSaINSt8__detail10_Hash_nodeISt4pairIKi16participant_infoELb0EEEEC2Ev,"axG",@progbits,_ZNSaINSt8__detail10_Hash_nodeISt4pairIKi16participant_infoELb0EEEEC5Ev,comdat
	.align 2
	.weak	_ZNSaINSt8__detail10_Hash_nodeISt4pairIKi16participant_infoELb0EEEEC2Ev
	.type	_ZNSaINSt8__detail10_Hash_nodeISt4pairIKi16participant_infoELb0EEEEC2Ev, @function
_ZNSaINSt8__detail10_Hash_nodeISt4pairIKi16participant_infoELb0EEEEC2Ev:
.LFB4532:
	.loc 16 144 7
	.cfi_startproc
	pushq	%rbp
	.cfi_def_cfa_offset 16
	.cfi_offset 6, -16
	movq	%rsp, %rbp
	.cfi_def_cfa_register 6
	subq	$16, %rsp
	movq	%rdi, -8(%rbp)
.LBB95:
	.loc 16 144 36
	movq	-8(%rbp), %rax
	movq	%rax, %rdi
	call	_ZN9__gnu_cxx13new_allocatorINSt8__detail10_Hash_nodeISt4pairIKi16participant_infoELb0EEEEC2Ev
.LBE95:
	.loc 16 144 38
	nop
	leave
	.cfi_def_cfa 7, 8
	ret
	.cfi_endproc
.LFE4532:
	.size	_ZNSaINSt8__detail10_Hash_nodeISt4pairIKi16participant_infoELb0EEEEC2Ev, .-_ZNSaINSt8__detail10_Hash_nodeISt4pairIKi16participant_infoELb0EEEEC2Ev
	.weak	_ZNSaINSt8__detail10_Hash_nodeISt4pairIKi16participant_infoELb0EEEEC1Ev
	.set	_ZNSaINSt8__detail10_Hash_nodeISt4pairIKi16participant_infoELb0EEEEC1Ev,_ZNSaINSt8__detail10_Hash_nodeISt4pairIKi16participant_infoELb0EEEEC2Ev
	.section	.text._ZNSaINSt8__detail10_Hash_nodeISt4pairIKi16participant_infoELb0EEEED2Ev,"axG",@progbits,_ZNSaINSt8__detail10_Hash_nodeISt4pairIKi16participant_infoELb0EEEED5Ev,comdat
	.align 2
	.weak	_ZNSaINSt8__detail10_Hash_nodeISt4pairIKi16participant_infoELb0EEEED2Ev
	.type	_ZNSaINSt8__detail10_Hash_nodeISt4pairIKi16participant_infoELb0EEEED2Ev, @function
_ZNSaINSt8__detail10_Hash_nodeISt4pairIKi16participant_infoELb0EEEED2Ev:
.LFB4535:
	.loc 16 162 7
	.cfi_startproc
	pushq	%rbp
	.cfi_def_cfa_offset 16
	.cfi_offset 6, -16
	movq	%rsp, %rbp
	.cfi_def_cfa_register 6
	movq	%rdi, -8(%rbp)
	.loc 16 162 39
	nop
	popq	%rbp
	.cfi_def_cfa 7, 8
	ret
	.cfi_endproc
.LFE4535:
	.size	_ZNSaINSt8__detail10_Hash_nodeISt4pairIKi16participant_infoELb0EEEED2Ev, .-_ZNSaINSt8__detail10_Hash_nodeISt4pairIKi16participant_infoELb0EEEED2Ev
	.weak	_ZNSaINSt8__detail10_Hash_nodeISt4pairIKi16participant_infoELb0EEEED1Ev
	.set	_ZNSaINSt8__detail10_Hash_nodeISt4pairIKi16participant_infoELb0EEEED1Ev,_ZNSaINSt8__detail10_Hash_nodeISt4pairIKi16participant_infoELb0EEEED2Ev
	.section	.text._ZNSt10_HashtableIiSt4pairIKi16participant_infoESaIS3_ENSt8__detail10_Select1stESt8equal_toIiESt4hashIiENS5_18_Mod_range_hashingENS5_20_Default_ranged_hashENS5_20_Prime_rehash_policyENS5_17_Hashtable_traitsILb0ELb0ELb1EEEED2Ev,"axG",@progbits,_ZNSt10_HashtableIiSt4pairIKi16participant_infoESaIS3_ENSt8__detail10_Select1stESt8equal_toIiESt4hashIiENS5_18_Mod_range_hashingENS5_20_Default_ranged_hashENS5_20_Prime_rehash_policyENS5_17_Hashtable_traitsILb0ELb0ELb1EEEED5Ev,comdat
	.align 2
	.weak	_ZNSt10_HashtableIiSt4pairIKi16participant_infoESaIS3_ENSt8__detail10_Select1stESt8equal_toIiESt4hashIiENS5_18_Mod_range_hashingENS5_20_Default_ranged_hashENS5_20_Prime_rehash_policyENS5_17_Hashtable_traitsILb0ELb0ELb1EEEED2Ev
	.type	_ZNSt10_HashtableIiSt4pairIKi16participant_infoESaIS3_ENSt8__detail10_Select1stESt8equal_toIiESt4hashIiENS5_18_Mod_range_hashingENS5_20_Default_ranged_hashENS5_20_Prime_rehash_policyENS5_17_Hashtable_traitsILb0ELb0ELb1EEEED2Ev, @function
_ZNSt10_HashtableIiSt4pairIKi16participant_infoESaIS3_ENSt8__detail10_Select1stESt8equal_toIiESt4hashIiENS5_18_Mod_range_hashingENS5_20_Default_ranged_hashENS5_20_Prime_rehash_policyENS5_17_Hashtable_traitsILb0ELb0ELb1EEEED2Ev:
.LFB4538:
	.loc 11 1383 5
	.cfi_startproc
	.cfi_personality 0x9b,DW.ref.__gxx_personality_v0
	.cfi_lsda 0x1b,.LLSDA4538
	pushq	%rbp
	.cfi_def_cfa_offset 16
	.cfi_offset 6, -16
	movq	%rsp, %rbp
	.cfi_def_cfa_register 6
	subq	$16, %rsp
	movq	%rdi, -8(%rbp)
.LBB96:
	.loc 11 1387 12
	movq	-8(%rbp), %rax
	movq	%rax, %rdi
	call	_ZNSt10_HashtableIiSt4pairIKi16participant_infoESaIS3_ENSt8__detail10_Select1stESt8equal_toIiESt4hashIiENS5_18_Mod_range_hashingENS5_20_Default_ranged_hashENS5_20_Prime_rehash_policyENS5_17_Hashtable_traitsILb0ELb0ELb1EEEE5clearEv
	.loc 11 1388 28
	movq	-8(%rbp), %rax
	movq	%rax, %rdi
	call	_ZNSt10_HashtableIiSt4pairIKi16participant_infoESaIS3_ENSt8__detail10_Select1stESt8equal_toIiESt4hashIiENS5_18_Mod_range_hashingENS5_20_Default_ranged_hashENS5_20_Prime_rehash_policyENS5_17_Hashtable_traitsILb0ELb0ELb1EEEE21_M_deallocate_bucketsEv
	.loc 11 1389 5
	movq	-8(%rbp), %rax
	movq	%rax, %rdi
	call	_ZNSt8__detail16_Hashtable_allocISaINS_10_Hash_nodeISt4pairIKi16participant_infoELb0EEEEED2Ev
.LBE96:
	nop
	leave
	.cfi_def_cfa 7, 8
	ret
	.cfi_endproc
.LFE4538:
	.section	.gcc_except_table
.LLSDA4538:
	.byte	0xff
	.byte	0xff
	.byte	0x1
	.uleb128 .LLSDACSE4538-.LLSDACSB4538
.LLSDACSB4538:
.LLSDACSE4538:
	.section	.text._ZNSt10_HashtableIiSt4pairIKi16participant_infoESaIS3_ENSt8__detail10_Select1stESt8equal_toIiESt4hashIiENS5_18_Mod_range_hashingENS5_20_Default_ranged_hashENS5_20_Prime_rehash_policyENS5_17_Hashtable_traitsILb0ELb0ELb1EEEED2Ev,"axG",@progbits,_ZNSt10_HashtableIiSt4pairIKi16participant_infoESaIS3_ENSt8__detail10_Select1stESt8equal_toIiESt4hashIiENS5_18_Mod_range_hashingENS5_20_Default_ranged_hashENS5_20_Prime_rehash_policyENS5_17_Hashtable_traitsILb0ELb0ELb1EEEED5Ev,comdat
	.size	_ZNSt10_HashtableIiSt4pairIKi16participant_infoESaIS3_ENSt8__detail10_Select1stESt8equal_toIiESt4hashIiENS5_18_Mod_range_hashingENS5_20_Default_ranged_hashENS5_20_Prime_rehash_policyENS5_17_Hashtable_traitsILb0ELb0ELb1EEEED2Ev, .-_ZNSt10_HashtableIiSt4pairIKi16participant_infoESaIS3_ENSt8__detail10_Select1stESt8equal_toIiESt4hashIiENS5_18_Mod_range_hashingENS5_20_Default_ranged_hashENS5_20_Prime_rehash_policyENS5_17_Hashtable_traitsILb0ELb0ELb1EEEED2Ev
	.weak	_ZNSt10_HashtableIiSt4pairIKi16participant_infoESaIS3_ENSt8__detail10_Select1stESt8equal_toIiESt4hashIiENS5_18_Mod_range_hashingENS5_20_Default_ranged_hashENS5_20_Prime_rehash_policyENS5_17_Hashtable_traitsILb0ELb0ELb1EEEED1Ev
	.set	_ZNSt10_HashtableIiSt4pairIKi16participant_infoESaIS3_ENSt8__detail10_Select1stESt8equal_toIiESt4hashIiENS5_18_Mod_range_hashingENS5_20_Default_ranged_hashENS5_20_Prime_rehash_policyENS5_17_Hashtable_traitsILb0ELb0ELb1EEEED1Ev,_ZNSt10_HashtableIiSt4pairIKi16participant_infoESaIS3_ENSt8__detail10_Select1stESt8equal_toIiESt4hashIiENS5_18_Mod_range_hashingENS5_20_Default_ranged_hashENS5_20_Prime_rehash_policyENS5_17_Hashtable_traitsILb0ELb0ELb1EEEED2Ev
	.section	.text._ZNSt5queueIiSt5dequeIiSaIiEEE4pushERKi,"axG",@progbits,_ZNSt5queueIiSt5dequeIiSaIiEEE4pushERKi,comdat
	.align 2
	.weak	_ZNSt5queueIiSt5dequeIiSaIiEEE4pushERKi
	.type	_ZNSt5queueIiSt5dequeIiSaIiEEE4pushERKi, @function
_ZNSt5queueIiSt5dequeIiSaIiEEE4pushERKi:
.LFB4548:
	.loc 15 265 7
	.cfi_startproc
	pushq	%rbp
	.cfi_def_cfa_offset 16
	.cfi_offset 6, -16
	movq	%rsp, %rbp
	.cfi_def_cfa_register 6
	subq	$16, %rsp
	movq	%rdi, -8(%rbp)
	movq	%rsi, -16(%rbp)
	.loc 15 266 20
	movq	-8(%rbp), %rax
	movq	-16(%rbp), %rdx
	movq	%rdx, %rsi
	movq	%rax, %rdi
	call	_ZNSt5dequeIiSaIiEE9push_backERKi
	.loc 15 266 27
	nop
	leave
	.cfi_def_cfa 7, 8
	ret
	.cfi_endproc
.LFE4548:
	.size	_ZNSt5queueIiSt5dequeIiSaIiEEE4pushERKi, .-_ZNSt5queueIiSt5dequeIiSaIiEEE4pushERKi
	.section	.text._ZNKSt5queueIiSt5dequeIiSaIiEEE5emptyEv,"axG",@progbits,_ZNKSt5queueIiSt5dequeIiSaIiEEE5emptyEv,comdat
	.align 2
	.weak	_ZNKSt5queueIiSt5dequeIiSaIiEEE5emptyEv
	.type	_ZNKSt5queueIiSt5dequeIiSaIiEEE5emptyEv, @function
_ZNKSt5queueIiSt5dequeIiSaIiEEE5emptyEv:
.LFB4551:
	.loc 15 203 7
	.cfi_startproc
	pushq	%rbp
	.cfi_def_cfa_offset 16
	.cfi_offset 6, -16
	movq	%rsp, %rbp
	.cfi_def_cfa_register 6
	subq	$16, %rsp
	movq	%rdi, -8(%rbp)
	.loc 15 204 23
	movq	-8(%rbp), %rax
	movq	%rax, %rdi
	call	_ZNKSt5dequeIiSaIiEE5emptyEv
	.loc 15 204 27
	leave
	.cfi_def_cfa 7, 8
	ret
	.cfi_endproc
.LFE4551:
	.size	_ZNKSt5queueIiSt5dequeIiSaIiEEE5emptyEv, .-_ZNKSt5queueIiSt5dequeIiSaIiEEE5emptyEv
	.section	.text._ZNSt5queueIiSt5dequeIiSaIiEEE5frontEv,"axG",@progbits,_ZNSt5queueIiSt5dequeIiSaIiEEE5frontEv,comdat
	.align 2
	.weak	_ZNSt5queueIiSt5dequeIiSaIiEEE5frontEv
	.type	_ZNSt5queueIiSt5dequeIiSaIiEEE5frontEv, @function
_ZNSt5queueIiSt5dequeIiSaIiEEE5frontEv:
.LFB4552:
	.loc 15 216 7
	.cfi_startproc
	pushq	%rbp
	.cfi_def_cfa_offset 16
	.cfi_offset 6, -16
	movq	%rsp, %rbp
	.cfi_def_cfa_register 6
	subq	$16, %rsp
	movq	%rdi, -8(%rbp)
	.loc 15 219 16
	movq	-8(%rbp), %rax
	movq	%rax, %rdi
	call	_ZNSt5dequeIiSaIiEE5frontEv
	.loc 15 220 7
	leave
	.cfi_def_cfa 7, 8
	ret
	.cfi_endproc
.LFE4552:
	.size	_ZNSt5queueIiSt5dequeIiSaIiEEE5frontEv, .-_ZNSt5queueIiSt5dequeIiSaIiEEE5frontEv
	.section	.text._ZNSt5queueIiSt5dequeIiSaIiEEE3popEv,"axG",@progbits,_ZNSt5queueIiSt5dequeIiSaIiEEE3popEv,comdat
	.align 2
	.weak	_ZNSt5queueIiSt5dequeIiSaIiEEE3popEv
	.type	_ZNSt5queueIiSt5dequeIiSaIiEEE3popEv, @function
_ZNSt5queueIiSt5dequeIiSaIiEEE3popEv:
.LFB4553:
	.loc 15 298 7
	.cfi_startproc
	pushq	%rbp
	.cfi_def_cfa_offset 16
	.cfi_offset 6, -16
	movq	%rsp, %rbp
	.cfi_def_cfa_register 6
	subq	$16, %rsp
	movq	%rdi, -8(%rbp)
	.loc 15 301 13
	movq	-8(%rbp), %rax
	movq	%rax, %rdi
	call	_ZNSt5dequeIiSaIiEE9pop_frontEv
	.loc 15 302 7
	nop
	leave
	.cfi_def_cfa 7, 8
	ret
	.cfi_endproc
.LFE4553:
	.size	_ZNSt5queueIiSt5dequeIiSaIiEEE3popEv, .-_ZNSt5queueIiSt5dequeIiSaIiEEE3popEv
	.section	.text._ZNSt7__cxx1112basic_stringIcSt11char_traitsIcESaIcEEpLEc,"axG",@progbits,_ZNSt7__cxx1112basic_stringIcSt11char_traitsIcESaIcEEpLEc,comdat
	.align 2
	.weak	_ZNSt7__cxx1112basic_stringIcSt11char_traitsIcESaIcEEpLEc
	.type	_ZNSt7__cxx1112basic_stringIcSt11char_traitsIcESaIcEEpLEc, @function
_ZNSt7__cxx1112basic_stringIcSt11char_traitsIcESaIcEEpLEc:
.LFB4554:
	.loc 5 1157 7
	.cfi_startproc
	pushq	%rbp
	.cfi_def_cfa_offset 16
	.cfi_offset 6, -16
	movq	%rsp, %rbp
	.cfi_def_cfa_register 6
	subq	$16, %rsp
	movq	%rdi, -8(%rbp)
	movl	%esi, %eax
	movb	%al, -12(%rbp)
	.loc 5 1159 17
	movsbl	-12(%rbp), %edx
	movq	-8(%rbp), %rax
	movl	%edx, %esi
	movq	%rax, %rdi
	call	_ZNSt7__cxx1112basic_stringIcSt11char_traitsIcESaIcEE9push_backEc
	.loc 5 1160 10
	movq	-8(%rbp), %rax
	.loc 5 1161 7
	leave
	.cfi_def_cfa 7, 8
	ret
	.cfi_endproc
.LFE4554:
	.size	_ZNSt7__cxx1112basic_stringIcSt11char_traitsIcESaIcEEpLEc, .-_ZNSt7__cxx1112basic_stringIcSt11char_traitsIcESaIcEEpLEc
	.section	.text._ZNSt13unordered_mapINSt7__cxx1112basic_stringIcSt11char_traitsIcESaIcEEEiSt4hashIS5_ESt8equal_toIS5_ESaISt4pairIKS5_iEEEixERSB_,"axG",@progbits,_ZNSt13unordered_mapINSt7__cxx1112basic_stringIcSt11char_traitsIcESaIcEEEiSt4hashIS5_ESt8equal_toIS5_ESaISt4pairIKS5_iEEEixERSB_,comdat
	.align 2
	.weak	_ZNSt13unordered_mapINSt7__cxx1112basic_stringIcSt11char_traitsIcESaIcEEEiSt4hashIS5_ESt8equal_toIS5_ESaISt4pairIKS5_iEEEixERSB_
	.type	_ZNSt13unordered_mapINSt7__cxx1112basic_stringIcSt11char_traitsIcESaIcEEEiSt4hashIS5_ESt8equal_toIS5_ESaISt4pairIKS5_iEEEixERSB_, @function
_ZNSt13unordered_mapINSt7__cxx1112basic_stringIcSt11char_traitsIcESaIcEEEiSt4hashIS5_ESt8equal_toIS5_ESaISt4pairIKS5_iEEEixERSB_:
.LFB4555:
	.loc 10 983 7
	.cfi_startproc
	pushq	%rbp
	.cfi_def_cfa_offset 16
	.cfi_offset 6, -16
	movq	%rsp, %rbp
	.cfi_def_cfa_register 6
	subq	$16, %rsp
	movq	%rdi, -8(%rbp)
	movq	%rsi, -16(%rbp)
	.loc 10 984 16
	movq	-8(%rbp), %rax
	.loc 10 984 20
	movq	-16(%rbp), %rdx
	movq	%rdx, %rsi
	movq	%rax, %rdi
	call	_ZNSt8__detail9_Map_baseINSt7__cxx1112basic_stringIcSt11char_traitsIcESaIcEEESt4pairIKS6_iESaIS9_ENS_10_Select1stESt8equal_toIS6_ESt4hashIS6_ENS_18_Mod_range_hashingENS_20_Default_ranged_hashENS_20_Prime_rehash_policyENS_17_Hashtable_traitsILb1ELb0ELb1EEELb1EEixERS8_
	.loc 10 984 27
	leave
	.cfi_def_cfa 7, 8
	ret
	.cfi_endproc
.LFE4555:
	.size	_ZNSt13unordered_mapINSt7__cxx1112basic_stringIcSt11char_traitsIcESaIcEEEiSt4hashIS5_ESt8equal_toIS5_ESaISt4pairIKS5_iEEEixERSB_, .-_ZNSt13unordered_mapINSt7__cxx1112basic_stringIcSt11char_traitsIcESaIcEEEiSt4hashIS5_ESt8equal_toIS5_ESaISt4pairIKS5_iEEEixERSB_
	.section	.rodata
.LC27:
	.string	"basic_string::substr"
	.section	.text._ZNKSt7__cxx1112basic_stringIcSt11char_traitsIcESaIcEE6substrEmm,"axG",@progbits,_ZNKSt7__cxx1112basic_stringIcSt11char_traitsIcESaIcEE6substrEmm,comdat
	.align 2
	.weak	_ZNKSt7__cxx1112basic_stringIcSt11char_traitsIcESaIcEE6substrEmm
	.type	_ZNKSt7__cxx1112basic_stringIcSt11char_traitsIcESaIcEE6substrEmm, @function
_ZNKSt7__cxx1112basic_stringIcSt11char_traitsIcESaIcEE6substrEmm:
.LFB4556:
	.loc 5 2833 7
	.cfi_startproc
	pushq	%rbp
	.cfi_def_cfa_offset 16
	.cfi_offset 6, -16
	movq	%rsp, %rbp
	.cfi_def_cfa_register 6
	subq	$32, %rsp
	movq	%rdi, -8(%rbp)
	movq	%rsi, -16(%rbp)
	movq	%rdx, -24(%rbp)
	movq	%rcx, -32(%rbp)
	.loc 5 2835 52
	movq	-24(%rbp), %rcx
	movq	-16(%rbp), %rax
	leaq	.LC27(%rip), %rdx
	movq	%rcx, %rsi
	movq	%rax, %rdi
	call	_ZNKSt7__cxx1112basic_stringIcSt11char_traitsIcESaIcEE8_M_checkEmPKc
	movq	%rax, %rdi
	movq	-32(%rbp), %rdx
	movq	-16(%rbp), %rsi
	movq	-8(%rbp), %rax
	movq	%rdx, %rcx
	movq	%rdi, %rdx
	movq	%rax, %rdi
	call	_ZNSt7__cxx1112basic_stringIcSt11char_traitsIcESaIcEEC1ERKS4_mm
	.loc 5 2835 55
	movq	-8(%rbp), %rax
	leave
	.cfi_def_cfa 7, 8
	ret
	.cfi_endproc
.LFE4556:
	.size	_ZNKSt7__cxx1112basic_stringIcSt11char_traitsIcESaIcEE6substrEmm, .-_ZNKSt7__cxx1112basic_stringIcSt11char_traitsIcESaIcEE6substrEmm
	.section	.text._ZNSt13unordered_mapIi16participant_infoSt4hashIiESt8equal_toIiESaISt4pairIKiS0_EEEixERS6_,"axG",@progbits,_ZNSt13unordered_mapIi16participant_infoSt4hashIiESt8equal_toIiESaISt4pairIKiS0_EEEixERS6_,comdat
	.align 2
	.weak	_ZNSt13unordered_mapIi16participant_infoSt4hashIiESt8equal_toIiESaISt4pairIKiS0_EEEixERS6_
	.type	_ZNSt13unordered_mapIi16participant_infoSt4hashIiESt8equal_toIiESaISt4pairIKiS0_EEEixERS6_, @function
_ZNSt13unordered_mapIi16participant_infoSt4hashIiESt8equal_toIiESaISt4pairIKiS0_EEEixERS6_:
.LFB4557:
	.loc 10 983 7
	.cfi_startproc
	pushq	%rbp
	.cfi_def_cfa_offset 16
	.cfi_offset 6, -16
	movq	%rsp, %rbp
	.cfi_def_cfa_register 6
	subq	$16, %rsp
	movq	%rdi, -8(%rbp)
	movq	%rsi, -16(%rbp)
	.loc 10 984 16
	movq	-8(%rbp), %rax
	.loc 10 984 20
	movq	-16(%rbp), %rdx
	movq	%rdx, %rsi
	movq	%rax, %rdi
	call	_ZNSt8__detail9_Map_baseIiSt4pairIKi16participant_infoESaIS4_ENS_10_Select1stESt8equal_toIiESt4hashIiENS_18_Mod_range_hashingENS_20_Default_ranged_hashENS_20_Prime_rehash_policyENS_17_Hashtable_traitsILb0ELb0ELb1EEELb1EEixERS2_
	.loc 10 984 27
	leave
	.cfi_def_cfa 7, 8
	ret
	.cfi_endproc
.LFE4557:
	.size	_ZNSt13unordered_mapIi16participant_infoSt4hashIiESt8equal_toIiESaISt4pairIKiS0_EEEixERS6_, .-_ZNSt13unordered_mapIi16participant_infoSt4hashIiESt8equal_toIiESaISt4pairIKiS0_EEEixERS6_
	.section	.text._ZNSt13unordered_mapIi16participant_infoSt4hashIiESt8equal_toIiESaISt4pairIKiS0_EEE5eraseERS6_,"axG",@progbits,_ZNSt13unordered_mapIi16participant_infoSt4hashIiESt8equal_toIiESaISt4pairIKiS0_EEE5eraseERS6_,comdat
	.align 2
	.weak	_ZNSt13unordered_mapIi16participant_infoSt4hashIiESt8equal_toIiESaISt4pairIKiS0_EEE5eraseERS6_
	.type	_ZNSt13unordered_mapIi16participant_infoSt4hashIiESt8equal_toIiESaISt4pairIKiS0_EEE5eraseERS6_, @function
_ZNSt13unordered_mapIi16participant_infoSt4hashIiESt8equal_toIiESaISt4pairIKiS0_EEE5eraseERS6_:
.LFB4558:
	.loc 10 813 7
	.cfi_startproc
	pushq	%rbp
	.cfi_def_cfa_offset 16
	.cfi_offset 6, -16
	movq	%rsp, %rbp
	.cfi_def_cfa_register 6
	subq	$16, %rsp
	movq	%rdi, -8(%rbp)
	movq	%rsi, -16(%rbp)
	.loc 10 814 26
	movq	-8(%rbp), %rax
	movq	-16(%rbp), %rdx
	movq	%rdx, %rsi
	movq	%rax, %rdi
	call	_ZNSt10_HashtableIiSt4pairIKi16participant_infoESaIS3_ENSt8__detail10_Select1stESt8equal_toIiESt4hashIiENS5_18_Mod_range_hashingENS5_20_Default_ranged_hashENS5_20_Prime_rehash_policyENS5_17_Hashtable_traitsILb0ELb0ELb1EEEE5eraseERS1_
	.loc 10 814 33
	leave
	.cfi_def_cfa 7, 8
	ret
	.cfi_endproc
.LFE4558:
	.size	_ZNSt13unordered_mapIi16participant_infoSt4hashIiESt8equal_toIiESaISt4pairIKiS0_EEE5eraseERS6_, .-_ZNSt13unordered_mapIi16participant_infoSt4hashIiESt8equal_toIiESaISt4pairIKiS0_EEE5eraseERS6_
	.section	.text._ZNSt13unordered_mapIi16participant_infoSt4hashIiESt8equal_toIiESaISt4pairIKiS0_EEE5beginEv,"axG",@progbits,_ZNSt13unordered_mapIi16participant_infoSt4hashIiESt8equal_toIiESaISt4pairIKiS0_EEE5beginEv,comdat
	.align 2
	.weak	_ZNSt13unordered_mapIi16participant_infoSt4hashIiESt8equal_toIiESaISt4pairIKiS0_EEE5beginEv
	.type	_ZNSt13unordered_mapIi16participant_infoSt4hashIiESt8equal_toIiESaISt4pairIKiS0_EEE5beginEv, @function
_ZNSt13unordered_mapIi16participant_infoSt4hashIiESt8equal_toIiESaISt4pairIKiS0_EEE5beginEv:
.LFB4559:
	.loc 10 324 7
	.cfi_startproc
	pushq	%rbp
	.cfi_def_cfa_offset 16
	.cfi_offset 6, -16
	movq	%rsp, %rbp
	.cfi_def_cfa_register 6
	subq	$16, %rsp
	movq	%rdi, -8(%rbp)
	.loc 10 325 26
	movq	-8(%rbp), %rax
	movq	%rax, %rdi
	call	_ZNSt10_HashtableIiSt4pairIKi16participant_infoESaIS3_ENSt8__detail10_Select1stESt8equal_toIiESt4hashIiENS5_18_Mod_range_hashingENS5_20_Default_ranged_hashENS5_20_Prime_rehash_policyENS5_17_Hashtable_traitsILb0ELb0ELb1EEEE5beginEv
	.loc 10 325 30
	leave
	.cfi_def_cfa 7, 8
	ret
	.cfi_endproc
.LFE4559:
	.size	_ZNSt13unordered_mapIi16participant_infoSt4hashIiESt8equal_toIiESaISt4pairIKiS0_EEE5beginEv, .-_ZNSt13unordered_mapIi16participant_infoSt4hashIiESt8equal_toIiESaISt4pairIKiS0_EEE5beginEv
	.section	.text._ZNSt13unordered_mapIi16participant_infoSt4hashIiESt8equal_toIiESaISt4pairIKiS0_EEE3endEv,"axG",@progbits,_ZNSt13unordered_mapIi16participant_infoSt4hashIiESt8equal_toIiESaISt4pairIKiS0_EEE3endEv,comdat
	.align 2
	.weak	_ZNSt13unordered_mapIi16participant_infoSt4hashIiESt8equal_toIiESaISt4pairIKiS0_EEE3endEv
	.type	_ZNSt13unordered_mapIi16participant_infoSt4hashIiESt8equal_toIiESaISt4pairIKiS0_EEE3endEv, @function
_ZNSt13unordered_mapIi16participant_infoSt4hashIiESt8equal_toIiESaISt4pairIKiS0_EEE3endEv:
.LFB4560:
	.loc 10 346 7
	.cfi_startproc
	pushq	%rbp
	.cfi_def_cfa_offset 16
	.cfi_offset 6, -16
	movq	%rsp, %rbp
	.cfi_def_cfa_register 6
	subq	$16, %rsp
	movq	%rdi, -8(%rbp)
	.loc 10 347 24
	movq	-8(%rbp), %rax
	movq	%rax, %rdi
	call	_ZNSt10_HashtableIiSt4pairIKi16participant_infoESaIS3_ENSt8__detail10_Select1stESt8equal_toIiESt4hashIiENS5_18_Mod_range_hashingENS5_20_Default_ranged_hashENS5_20_Prime_rehash_policyENS5_17_Hashtable_traitsILb0ELb0ELb1EEEE3endEv
	.loc 10 347 28
	leave
	.cfi_def_cfa 7, 8
	ret
	.cfi_endproc
.LFE4560:
	.size	_ZNSt13unordered_mapIi16participant_infoSt4hashIiESt8equal_toIiESaISt4pairIKiS0_EEE3endEv, .-_ZNSt13unordered_mapIi16participant_infoSt4hashIiESt8equal_toIiESaISt4pairIKiS0_EEE3endEv
	.section	.text._ZNSt8__detailneISt4pairIKi16participant_infoELb0EEEbRKNS_19_Node_iterator_baseIT_XT0_EEES9_,"axG",@progbits,_ZNSt8__detailneISt4pairIKi16participant_infoELb0EEEbRKNS_19_Node_iterator_baseIT_XT0_EEES9_,comdat
	.weak	_ZNSt8__detailneISt4pairIKi16participant_infoELb0EEEbRKNS_19_Node_iterator_baseIT_XT0_EEES9_
	.type	_ZNSt8__detailneISt4pairIKi16participant_infoELb0EEEbRKNS_19_Node_iterator_baseIT_XT0_EEES9_, @function
_ZNSt8__detailneISt4pairIKi16participant_infoELb0EEEbRKNS_19_Node_iterator_baseIT_XT0_EEES9_:
.LFB4561:
	.loc 6 311 5
	.cfi_startproc
	pushq	%rbp
	.cfi_def_cfa_offset 16
	.cfi_offset 6, -16
	movq	%rsp, %rbp
	.cfi_def_cfa_register 6
	movq	%rdi, -8(%rbp)
	movq	%rsi, -16(%rbp)
	.loc 6 314 18
	movq	-8(%rbp), %rax
	movq	(%rax), %rdx
	.loc 6 314 32
	movq	-16(%rbp), %rax
	movq	(%rax), %rax
	cmpq	%rax, %rdx
	setne	%al
	.loc 6 314 40
	popq	%rbp
	.cfi_def_cfa 7, 8
	ret
	.cfi_endproc
.LFE4561:
	.size	_ZNSt8__detailneISt4pairIKi16participant_infoELb0EEEbRKNS_19_Node_iterator_baseIT_XT0_EEES9_, .-_ZNSt8__detailneISt4pairIKi16participant_infoELb0EEEbRKNS_19_Node_iterator_baseIT_XT0_EEES9_
	.section	.text._ZNSt8__detail14_Node_iteratorISt4pairIKi16participant_infoELb0ELb0EEppEv,"axG",@progbits,_ZNSt8__detail14_Node_iteratorISt4pairIKi16participant_infoELb0ELb0EEppEv,comdat
	.align 2
	.weak	_ZNSt8__detail14_Node_iteratorISt4pairIKi16participant_infoELb0ELb0EEppEv
	.type	_ZNSt8__detail14_Node_iteratorISt4pairIKi16participant_infoELb0ELb0EEppEv, @function
_ZNSt8__detail14_Node_iteratorISt4pairIKi16participant_infoELb0ELb0EEppEv:
.LFB4562:
	.loc 6 352 7
	.cfi_startproc
	pushq	%rbp
	.cfi_def_cfa_offset 16
	.cfi_offset 6, -16
	movq	%rsp, %rbp
	.cfi_def_cfa_register 6
	subq	$16, %rsp
	movq	%rdi, -8(%rbp)
	.loc 6 354 15
	movq	-8(%rbp), %rax
	movq	%rax, %rdi
	call	_ZNSt8__detail19_Node_iterator_baseISt4pairIKi16participant_infoELb0EE7_M_incrEv
	.loc 6 355 10
	movq	-8(%rbp), %rax
	.loc 6 356 7
	leave
	.cfi_def_cfa 7, 8
	ret
	.cfi_endproc
.LFE4562:
	.size	_ZNSt8__detail14_Node_iteratorISt4pairIKi16participant_infoELb0ELb0EEppEv, .-_ZNSt8__detail14_Node_iteratorISt4pairIKi16participant_infoELb0ELb0EEppEv
	.section	.text._ZNKSt8__detail14_Node_iteratorISt4pairIKi16participant_infoELb0ELb0EEdeEv,"axG",@progbits,_ZNKSt8__detail14_Node_iteratorISt4pairIKi16participant_infoELb0ELb0EEdeEv,comdat
	.align 2
	.weak	_ZNKSt8__detail14_Node_iteratorISt4pairIKi16participant_infoELb0ELb0EEdeEv
	.type	_ZNKSt8__detail14_Node_iteratorISt4pairIKi16participant_infoELb0ELb0EEdeEv, @function
_ZNKSt8__detail14_Node_iteratorISt4pairIKi16participant_infoELb0ELb0EEdeEv:
.LFB4563:
	.loc 6 344 7
	.cfi_startproc
	pushq	%rbp
	.cfi_def_cfa_offset 16
	.cfi_offset 6, -16
	movq	%rsp, %rbp
	.cfi_def_cfa_register 6
	subq	$16, %rsp
	movq	%rdi, -8(%rbp)
	.loc 6 345 22
	movq	-8(%rbp), %rax
	movq	(%rax), %rax
	.loc 6 345 34
	movq	%rax, %rdi
	call	_ZNSt8__detail21_Hash_node_value_baseISt4pairIKi16participant_infoEE4_M_vEv
	.loc 6 345 38
	leave
	.cfi_def_cfa 7, 8
	ret
	.cfi_endproc
.LFE4563:
	.size	_ZNKSt8__detail14_Node_iteratorISt4pairIKi16participant_infoELb0ELb0EEdeEv, .-_ZNKSt8__detail14_Node_iteratorISt4pairIKi16participant_infoELb0ELb0EEdeEv
	.section	.text._ZNSt5queueINSt7__cxx1112basic_stringIcSt11char_traitsIcESaIcEEESt5dequeIS5_SaIS5_EEE4pushERKS5_,"axG",@progbits,_ZNSt5queueINSt7__cxx1112basic_stringIcSt11char_traitsIcESaIcEEESt5dequeIS5_SaIS5_EEE4pushERKS5_,comdat
	.align 2
	.weak	_ZNSt5queueINSt7__cxx1112basic_stringIcSt11char_traitsIcESaIcEEESt5dequeIS5_SaIS5_EEE4pushERKS5_
	.type	_ZNSt5queueINSt7__cxx1112basic_stringIcSt11char_traitsIcESaIcEEESt5dequeIS5_SaIS5_EEE4pushERKS5_, @function
_ZNSt5queueINSt7__cxx1112basic_stringIcSt11char_traitsIcESaIcEEESt5dequeIS5_SaIS5_EEE4pushERKS5_:
.LFB4564:
	.loc 15 265 7
	.cfi_startproc
	pushq	%rbp
	.cfi_def_cfa_offset 16
	.cfi_offset 6, -16
	movq	%rsp, %rbp
	.cfi_def_cfa_register 6
	subq	$16, %rsp
	movq	%rdi, -8(%rbp)
	movq	%rsi, -16(%rbp)
	.loc 15 266 20
	movq	-8(%rbp), %rax
	movq	-16(%rbp), %rdx
	movq	%rdx, %rsi
	movq	%rax, %rdi
	call	_ZNSt5dequeINSt7__cxx1112basic_stringIcSt11char_traitsIcESaIcEEESaIS5_EE9push_backERKS5_
	.loc 15 266 27
	nop
	leave
	.cfi_def_cfa 7, 8
	ret
	.cfi_endproc
.LFE4564:
	.size	_ZNSt5queueINSt7__cxx1112basic_stringIcSt11char_traitsIcESaIcEEESt5dequeIS5_SaIS5_EEE4pushERKS5_, .-_ZNSt5queueINSt7__cxx1112basic_stringIcSt11char_traitsIcESaIcEEESt5dequeIS5_SaIS5_EEE4pushERKS5_
	.section	.text._ZNKSt5queueINSt7__cxx1112basic_stringIcSt11char_traitsIcESaIcEEESt5dequeIS5_SaIS5_EEE4sizeEv,"axG",@progbits,_ZNKSt5queueINSt7__cxx1112basic_stringIcSt11char_traitsIcESaIcEEESt5dequeIS5_SaIS5_EEE4sizeEv,comdat
	.align 2
	.weak	_ZNKSt5queueINSt7__cxx1112basic_stringIcSt11char_traitsIcESaIcEEESt5dequeIS5_SaIS5_EEE4sizeEv
	.type	_ZNKSt5queueINSt7__cxx1112basic_stringIcSt11char_traitsIcESaIcEEESt5dequeIS5_SaIS5_EEE4sizeEv, @function
_ZNKSt5queueINSt7__cxx1112basic_stringIcSt11char_traitsIcESaIcEEESt5dequeIS5_SaIS5_EEE4sizeEv:
.LFB4566:
	.loc 15 208 7
	.cfi_startproc
	pushq	%rbp
	.cfi_def_cfa_offset 16
	.cfi_offset 6, -16
	movq	%rsp, %rbp
	.cfi_def_cfa_register 6
	subq	$16, %rsp
	movq	%rdi, -8(%rbp)
	.loc 15 209 22
	movq	-8(%rbp), %rax
	movq	%rax, %rdi
	call	_ZNKSt5dequeINSt7__cxx1112basic_stringIcSt11char_traitsIcESaIcEEESaIS5_EE4sizeEv
	.loc 15 209 26
	leave
	.cfi_def_cfa 7, 8
	ret
	.cfi_endproc
.LFE4566:
	.size	_ZNKSt5queueINSt7__cxx1112basic_stringIcSt11char_traitsIcESaIcEEESt5dequeIS5_SaIS5_EEE4sizeEv, .-_ZNKSt5queueINSt7__cxx1112basic_stringIcSt11char_traitsIcESaIcEEESt5dequeIS5_SaIS5_EEE4sizeEv
	.section	.text._ZNSt7__cxx1112basic_stringIcSt11char_traitsIcESaIcEEC2Ev,"axG",@progbits,_ZNSt7__cxx1112basic_stringIcSt11char_traitsIcESaIcEEC5Ev,comdat
	.align 2
	.weak	_ZNSt7__cxx1112basic_stringIcSt11char_traitsIcESaIcEEC2Ev
	.type	_ZNSt7__cxx1112basic_stringIcSt11char_traitsIcESaIcEEC2Ev, @function
_ZNSt7__cxx1112basic_stringIcSt11char_traitsIcESaIcEEC2Ev:
.LFB4569:
	.loc 5 431 7
	.cfi_startproc
	pushq	%rbp
	.cfi_def_cfa_offset 16
	.cfi_offset 6, -16
	movq	%rsp, %rbp
	.cfi_def_cfa_register 6
	pushq	%rbx
	subq	$40, %rsp
	.cfi_offset 3, -24
	movq	%rdi, -40(%rbp)
.LBB97:
	.loc 5 433 36
	movq	-40(%rbp), %rbx
	leaq	-17(%rbp), %rax
	movq	%rax, %rdi
	call	_ZNSaIcEC1Ev@PLT
	movq	-40(%rbp), %rax
	movq	%rax, %rdi
	call	_ZNSt7__cxx1112basic_stringIcSt11char_traitsIcESaIcEE13_M_local_dataEv
	movq	%rax, %rcx
	leaq	-17(%rbp), %rax
	movq	%rax, %rdx
	movq	%rcx, %rsi
	movq	%rbx, %rdi
	call	_ZNSt7__cxx1112basic_stringIcSt11char_traitsIcESaIcEE12_Alloc_hiderC1EPcOS3_
	.loc 5 159 45
	leaq	-17(%rbp), %rax
	movq	%rax, %rdi
	call	_ZNSaIcED1Ev@PLT
	.loc 5 434 22
	movq	-40(%rbp), %rax
	movl	$0, %esi
	movq	%rax, %rdi
	call	_ZNSt7__cxx1112basic_stringIcSt11char_traitsIcESaIcEE13_M_set_lengthEm
.LBE97:
	.loc 5 434 27
	nop
	movq	-8(%rbp), %rbx
	leave
	.cfi_def_cfa 7, 8
	ret
	.cfi_endproc
.LFE4569:
	.size	_ZNSt7__cxx1112basic_stringIcSt11char_traitsIcESaIcEEC2Ev, .-_ZNSt7__cxx1112basic_stringIcSt11char_traitsIcESaIcEEC2Ev
	.weak	_ZNSt7__cxx1112basic_stringIcSt11char_traitsIcESaIcEEC1Ev
	.set	_ZNSt7__cxx1112basic_stringIcSt11char_traitsIcESaIcEEC1Ev,_ZNSt7__cxx1112basic_stringIcSt11char_traitsIcESaIcEEC2Ev
	.section	.text._ZNKSt7__cxx1112basic_stringIcSt11char_traitsIcESaIcEEixEm,"axG",@progbits,_ZNKSt7__cxx1112basic_stringIcSt11char_traitsIcESaIcEEixEm,comdat
	.align 2
	.weak	_ZNKSt7__cxx1112basic_stringIcSt11char_traitsIcESaIcEEixEm
	.type	_ZNKSt7__cxx1112basic_stringIcSt11char_traitsIcESaIcEEixEm, @function
_ZNKSt7__cxx1112basic_stringIcSt11char_traitsIcESaIcEEixEm:
.LFB4571:
	.loc 5 1017 7
	.cfi_startproc
	pushq	%rbp
	.cfi_def_cfa_offset 16
	.cfi_offset 6, -16
	movq	%rsp, %rbp
	.cfi_def_cfa_register 6
	subq	$16, %rsp
	movq	%rdi, -8(%rbp)
	movq	%rsi, -16(%rbp)
	.loc 5 1020 16
	movq	-8(%rbp), %rax
	movq	%rax, %rdi
	call	_ZNKSt7__cxx1112basic_stringIcSt11char_traitsIcESaIcEE7_M_dataEv
	.loc 5 1020 24
	movq	-16(%rbp), %rdx
	addq	%rdx, %rax
	.loc 5 1021 7
	leave
	.cfi_def_cfa 7, 8
	ret
	.cfi_endproc
.LFE4571:
	.size	_ZNKSt7__cxx1112basic_stringIcSt11char_traitsIcESaIcEEixEm, .-_ZNKSt7__cxx1112basic_stringIcSt11char_traitsIcESaIcEEixEm
	.section	.text._ZNSt7__cxx1112basic_stringIcSt11char_traitsIcESaIcEEaSERKS4_,"axG",@progbits,_ZNSt7__cxx1112basic_stringIcSt11char_traitsIcESaIcEEaSERKS4_,comdat
	.align 2
	.weak	_ZNSt7__cxx1112basic_stringIcSt11char_traitsIcESaIcEEaSERKS4_
	.type	_ZNSt7__cxx1112basic_stringIcSt11char_traitsIcESaIcEEaSERKS4_, @function
_ZNSt7__cxx1112basic_stringIcSt11char_traitsIcESaIcEEaSERKS4_:
.LFB4572:
	.loc 5 665 7
	.cfi_startproc
	pushq	%rbp
	.cfi_def_cfa_offset 16
	.cfi_offset 6, -16
	movq	%rsp, %rbp
	.cfi_def_cfa_register 6
	subq	$16, %rsp
	movq	%rdi, -8(%rbp)
	movq	%rsi, -16(%rbp)
	.loc 5 667 21
	movq	-16(%rbp), %rdx
	movq	-8(%rbp), %rax
	movq	%rdx, %rsi
	movq	%rax, %rdi
	call	_ZNSt7__cxx1112basic_stringIcSt11char_traitsIcESaIcEE6assignERKS4_
	.loc 5 668 7
	leave
	.cfi_def_cfa 7, 8
	ret
	.cfi_endproc
.LFE4572:
	.size	_ZNSt7__cxx1112basic_stringIcSt11char_traitsIcESaIcEEaSERKS4_, .-_ZNSt7__cxx1112basic_stringIcSt11char_traitsIcESaIcEEaSERKS4_
	.section	.text._ZNSt7__cxx1112basic_stringIcSt11char_traitsIcESaIcEE5clearEv,"axG",@progbits,_ZNSt7__cxx1112basic_stringIcSt11char_traitsIcESaIcEE5clearEv,comdat
	.align 2
	.weak	_ZNSt7__cxx1112basic_stringIcSt11char_traitsIcESaIcEE5clearEv
	.type	_ZNSt7__cxx1112basic_stringIcSt11char_traitsIcESaIcEE5clearEv, @function
_ZNSt7__cxx1112basic_stringIcSt11char_traitsIcESaIcEE5clearEv:
.LFB4573:
	.loc 5 994 7
	.cfi_startproc
	pushq	%rbp
	.cfi_def_cfa_offset 16
	.cfi_offset 6, -16
	movq	%rsp, %rbp
	.cfi_def_cfa_register 6
	subq	$16, %rsp
	movq	%rdi, -8(%rbp)
	.loc 5 995 22
	movq	-8(%rbp), %rax
	movl	$0, %esi
	movq	%rax, %rdi
	call	_ZNSt7__cxx1112basic_stringIcSt11char_traitsIcESaIcEE13_M_set_lengthEm
	.loc 5 995 27
	nop
	leave
	.cfi_def_cfa 7, 8
	ret
	.cfi_endproc
.LFE4573:
	.size	_ZNSt7__cxx1112basic_stringIcSt11char_traitsIcESaIcEE5clearEv, .-_ZNSt7__cxx1112basic_stringIcSt11char_traitsIcESaIcEE5clearEv
	.section	.text._ZNSt13unordered_mapIi16participant_infoSt4hashIiESt8equal_toIiESaISt4pairIKiS0_EEE4findERS6_,"axG",@progbits,_ZNSt13unordered_mapIi16participant_infoSt4hashIiESt8equal_toIiESaISt4pairIKiS0_EEE4findERS6_,comdat
	.align 2
	.weak	_ZNSt13unordered_mapIi16participant_infoSt4hashIiESt8equal_toIiESaISt4pairIKiS0_EEE4findERS6_
	.type	_ZNSt13unordered_mapIi16participant_infoSt4hashIiESt8equal_toIiESaISt4pairIKiS0_EEE4findERS6_, @function
_ZNSt13unordered_mapIi16participant_infoSt4hashIiESt8equal_toIiESaISt4pairIKiS0_EEE4findERS6_:
.LFB4574:
	.loc 10 919 7
	.cfi_startproc
	pushq	%rbp
	.cfi_def_cfa_offset 16
	.cfi_offset 6, -16
	movq	%rsp, %rbp
	.cfi_def_cfa_register 6
	subq	$16, %rsp
	movq	%rdi, -8(%rbp)
	movq	%rsi, -16(%rbp)
	.loc 10 920 25
	movq	-8(%rbp), %rax
	movq	-16(%rbp), %rdx
	movq	%rdx, %rsi
	movq	%rax, %rdi
	call	_ZNSt10_HashtableIiSt4pairIKi16participant_infoESaIS3_ENSt8__detail10_Select1stESt8equal_toIiESt4hashIiENS5_18_Mod_range_hashingENS5_20_Default_ranged_hashENS5_20_Prime_rehash_policyENS5_17_Hashtable_traitsILb0ELb0ELb1EEEE4findERS1_
	.loc 10 920 32
	leave
	.cfi_def_cfa 7, 8
	ret
	.cfi_endproc
.LFE4574:
	.size	_ZNSt13unordered_mapIi16participant_infoSt4hashIiESt8equal_toIiESaISt4pairIKiS0_EEE4findERS6_, .-_ZNSt13unordered_mapIi16participant_infoSt4hashIiESt8equal_toIiESaISt4pairIKiS0_EEE4findERS6_
	.section	.text._ZNSt13unordered_mapIi16participant_infoSt4hashIiESt8equal_toIiESaISt4pairIKiS0_EEEixEOi,"axG",@progbits,_ZNSt13unordered_mapIi16participant_infoSt4hashIiESt8equal_toIiESaISt4pairIKiS0_EEEixEOi,comdat
	.align 2
	.weak	_ZNSt13unordered_mapIi16participant_infoSt4hashIiESt8equal_toIiESaISt4pairIKiS0_EEEixEOi
	.type	_ZNSt13unordered_mapIi16participant_infoSt4hashIiESt8equal_toIiESaISt4pairIKiS0_EEEixEOi, @function
_ZNSt13unordered_mapIi16participant_infoSt4hashIiESt8equal_toIiESaISt4pairIKiS0_EEEixEOi:
.LFB4575:
	.loc 10 987 7
	.cfi_startproc
	pushq	%rbp
	.cfi_def_cfa_offset 16
	.cfi_offset 6, -16
	movq	%rsp, %rbp
	.cfi_def_cfa_register 6
	pushq	%rbx
	subq	$24, %rsp
	.cfi_offset 3, -24
	movq	%rdi, -24(%rbp)
	movq	%rsi, -32(%rbp)
	.loc 10 988 16
	movq	-24(%rbp), %rbx
	.loc 10 988 30
	movq	-32(%rbp), %rax
	movq	%rax, %rdi
	call	_ZSt4moveIRiEONSt16remove_referenceIT_E4typeEOS2_
	.loc 10 988 20
	movq	%rax, %rsi
	movq	%rbx, %rdi
	call	_ZNSt8__detail9_Map_baseIiSt4pairIKi16participant_infoESaIS4_ENS_10_Select1stESt8equal_toIiESt4hashIiENS_18_Mod_range_hashingENS_20_Default_ranged_hashENS_20_Prime_rehash_policyENS_17_Hashtable_traitsILb0ELb0ELb1EEELb1EEixEOi
	.loc 10 988 38
	movq	-8(%rbp), %rbx
	leave
	.cfi_def_cfa 7, 8
	ret
	.cfi_endproc
.LFE4575:
	.size	_ZNSt13unordered_mapIi16participant_infoSt4hashIiESt8equal_toIiESaISt4pairIKiS0_EEEixEOi, .-_ZNSt13unordered_mapIi16participant_infoSt4hashIiESt8equal_toIiESaISt4pairIKiS0_EEEixEOi
	.section	.text._ZSt12__miter_baseIPKcET_S2_,"axG",@progbits,_ZSt12__miter_baseIPKcET_S2_,comdat
	.weak	_ZSt12__miter_baseIPKcET_S2_
	.type	_ZSt12__miter_baseIPKcET_S2_, @function
_ZSt12__miter_baseIPKcET_S2_:
.LFB4576:
	.file 17 "/usr/include/c++/10/bits/cpp_type_traits.h"
	.loc 17 544 5
	.cfi_startproc
	pushq	%rbp
	.cfi_def_cfa_offset 16
	.cfi_offset 6, -16
	movq	%rsp, %rbp
	.cfi_def_cfa_register 6
	movq	%rdi, -8(%rbp)
	.loc 17 545 14
	movq	-8(%rbp), %rax
	.loc 17 545 20
	popq	%rbp
	.cfi_def_cfa 7, 8
	ret
	.cfi_endproc
.LFE4576:
	.size	_ZSt12__miter_baseIPKcET_S2_, .-_ZSt12__miter_baseIPKcET_S2_
	.section	.text._ZSt13__copy_move_aILb0EPKcPcET1_T0_S4_S3_,"axG",@progbits,_ZSt13__copy_move_aILb0EPKcPcET1_T0_S4_S3_,comdat
	.weak	_ZSt13__copy_move_aILb0EPKcPcET1_T0_S4_S3_
	.type	_ZSt13__copy_move_aILb0EPKcPcET1_T0_S4_S3_, @function
_ZSt13__copy_move_aILb0EPKcPcET1_T0_S4_S3_:
.LFB4578:
	.loc 7 511 5
	.cfi_startproc
	pushq	%rbp
	.cfi_def_cfa_offset 16
	.cfi_offset 6, -16
	movq	%rsp, %rbp
	.cfi_def_cfa_register 6
	pushq	%r12
	pushq	%rbx
	subq	$32, %rsp
	.cfi_offset 12, -24
	.cfi_offset 3, -32
	movq	%rdi, -24(%rbp)
	movq	%rsi, -32(%rbp)
	movq	%rdx, -40(%rbp)
	.loc 7 513 31
	movq	-40(%rbp), %rax
	movq	%rax, %rdi
	call	_ZSt12__niter_baseIPcET_S1_
	movq	%rax, %r12
	movq	-32(%rbp), %rax
	movq	%rax, %rdi
	call	_ZSt12__niter_baseIPKcET_S2_
	movq	%rax, %rbx
	movq	-24(%rbp), %rax
	movq	%rax, %rdi
	call	_ZSt12__niter_baseIPKcET_S2_
	movq	%r12, %rdx
	movq	%rbx, %rsi
	movq	%rax, %rdi
	call	_ZSt14__copy_move_a1ILb0EPKcPcET1_T0_S4_S3_
	movq	%rax, %rdx
	leaq	-40(%rbp), %rax
	movq	%rdx, %rsi
	movq	%rax, %rdi
	call	_ZSt12__niter_wrapIPcET_RKS1_S1_
	.loc 7 517 5
	addq	$32, %rsp
	popq	%rbx
	popq	%r12
	popq	%rbp
	.cfi_def_cfa 7, 8
	ret
	.cfi_endproc
.LFE4578:
	.size	_ZSt13__copy_move_aILb0EPKcPcET1_T0_S4_S3_, .-_ZSt13__copy_move_aILb0EPKcPcET1_T0_S4_S3_
	.section	.text._ZSt19__iterator_categoryIPcENSt15iterator_traitsIT_E17iterator_categoryERKS2_,"axG",@progbits,_ZSt19__iterator_categoryIPcENSt15iterator_traitsIT_E17iterator_categoryERKS2_,comdat
	.weak	_ZSt19__iterator_categoryIPcENSt15iterator_traitsIT_E17iterator_categoryERKS2_
	.type	_ZSt19__iterator_categoryIPcENSt15iterator_traitsIT_E17iterator_categoryERKS2_, @function
_ZSt19__iterator_categoryIPcENSt15iterator_traitsIT_E17iterator_categoryERKS2_:
.LFB4579:
	.file 18 "/usr/include/c++/10/bits/stl_iterator_base_types.h"
	.loc 18 238 5
	.cfi_startproc
	pushq	%rbp
	.cfi_def_cfa_offset 16
	.cfi_offset 6, -16
	movq	%rsp, %rbp
	.cfi_def_cfa_register 6
	movq	%rdi, -8(%rbp)
	.loc 18 239 68
	popq	%rbp
	.cfi_def_cfa 7, 8
	ret
	.cfi_endproc
.LFE4579:
	.size	_ZSt19__iterator_categoryIPcENSt15iterator_traitsIT_E17iterator_categoryERKS2_, .-_ZSt19__iterator_categoryIPcENSt15iterator_traitsIT_E17iterator_categoryERKS2_
	.section	.text._ZNKSt7__cxx1112basic_stringIcSt11char_traitsIcESaIcEE7_M_dataEv,"axG",@progbits,_ZNKSt7__cxx1112basic_stringIcSt11char_traitsIcESaIcEE7_M_dataEv,comdat
	.align 2
	.weak	_ZNKSt7__cxx1112basic_stringIcSt11char_traitsIcESaIcEE7_M_dataEv
	.type	_ZNKSt7__cxx1112basic_stringIcSt11char_traitsIcESaIcEE7_M_dataEv, @function
_ZNKSt7__cxx1112basic_stringIcSt11char_traitsIcESaIcEE7_M_dataEv:
.LFB4601:
	.loc 5 186 7
	.cfi_startproc
	pushq	%rbp
	.cfi_def_cfa_offset 16
	.cfi_offset 6, -16
	movq	%rsp, %rbp
	.cfi_def_cfa_register 6
	movq	%rdi, -8(%rbp)
	.loc 5 187 28
	movq	-8(%rbp), %rax
	movq	(%rax), %rax
	.loc 5 187 34
	popq	%rbp
	.cfi_def_cfa 7, 8
	ret
	.cfi_endproc
.LFE4601:
	.size	_ZNKSt7__cxx1112basic_stringIcSt11char_traitsIcESaIcEE7_M_dataEv, .-_ZNKSt7__cxx1112basic_stringIcSt11char_traitsIcESaIcEE7_M_dataEv
	.section	.text._ZNSt7__cxx1112basic_stringIcSt11char_traitsIcESaIcEE13_M_local_dataEv,"axG",@progbits,_ZNSt7__cxx1112basic_stringIcSt11char_traitsIcESaIcEE13_M_local_dataEv,comdat
	.align 2
	.weak	_ZNSt7__cxx1112basic_stringIcSt11char_traitsIcESaIcEE13_M_local_dataEv
	.type	_ZNSt7__cxx1112basic_stringIcSt11char_traitsIcESaIcEE13_M_local_dataEv, @function
_ZNSt7__cxx1112basic_stringIcSt11char_traitsIcESaIcEE13_M_local_dataEv:
.LFB4605:
	.loc 5 190 7
	.cfi_startproc
	pushq	%rbp
	.cfi_def_cfa_offset 16
	.cfi_offset 6, -16
	movq	%rsp, %rbp
	.cfi_def_cfa_register 6
	subq	$16, %rsp
	movq	%rdi, -8(%rbp)
	.loc 5 193 51
	movq	-8(%rbp), %rax
	addq	$16, %rax
	.loc 5 193 49
	movq	%rax, %rdi
	call	_ZNSt14pointer_traitsIPcE10pointer_toERc
	.loc 5 197 7
	leave
	.cfi_def_cfa 7, 8
	ret
	.cfi_endproc
.LFE4605:
	.size	_ZNSt7__cxx1112basic_stringIcSt11char_traitsIcESaIcEE13_M_local_dataEv, .-_ZNSt7__cxx1112basic_stringIcSt11char_traitsIcESaIcEE13_M_local_dataEv
	.section	.text._ZNSt7__cxx1112basic_stringIcSt11char_traitsIcESaIcEE12_Alloc_hiderC2EPcRKS3_,"axG",@progbits,_ZNSt7__cxx1112basic_stringIcSt11char_traitsIcESaIcEE12_Alloc_hiderC5EPcRKS3_,comdat
	.align 2
	.weak	_ZNSt7__cxx1112basic_stringIcSt11char_traitsIcESaIcEE12_Alloc_hiderC2EPcRKS3_
	.type	_ZNSt7__cxx1112basic_stringIcSt11char_traitsIcESaIcEE12_Alloc_hiderC2EPcRKS3_, @function
_ZNSt7__cxx1112basic_stringIcSt11char_traitsIcESaIcEE12_Alloc_hiderC2EPcRKS3_:
.LFB4607:
	.loc 5 156 2
	.cfi_startproc
	pushq	%rbp
	.cfi_def_cfa_offset 16
	.cfi_offset 6, -16
	movq	%rsp, %rbp
	.cfi_def_cfa_register 6
	subq	$32, %rsp
	movq	%rdi, -8(%rbp)
	movq	%rsi, -16(%rbp)
	movq	%rdx, -24(%rbp)
.LBB98:
	.loc 5 157 35
	movq	-24(%rbp), %rdx
	movq	-8(%rbp), %rax
	movq	%rdx, %rsi
	movq	%rax, %rdi
	call	_ZNSaIcEC2ERKS_@PLT
	movq	-8(%rbp), %rax
	movq	-16(%rbp), %rdx
	movq	%rdx, (%rax)
.LBE98:
	.loc 5 157 39
	nop
	leave
	.cfi_def_cfa 7, 8
	ret
	.cfi_endproc
.LFE4607:
	.size	_ZNSt7__cxx1112basic_stringIcSt11char_traitsIcESaIcEE12_Alloc_hiderC2EPcRKS3_, .-_ZNSt7__cxx1112basic_stringIcSt11char_traitsIcESaIcEE12_Alloc_hiderC2EPcRKS3_
	.weak	_ZNSt7__cxx1112basic_stringIcSt11char_traitsIcESaIcEE12_Alloc_hiderC1EPcRKS3_
	.set	_ZNSt7__cxx1112basic_stringIcSt11char_traitsIcESaIcEE12_Alloc_hiderC1EPcRKS3_,_ZNSt7__cxx1112basic_stringIcSt11char_traitsIcESaIcEE12_Alloc_hiderC2EPcRKS3_
	.section	.text._ZNSt7__cxx1112basic_stringIcSt11char_traitsIcESaIcEE10_M_disposeEv,"axG",@progbits,_ZNSt7__cxx1112basic_stringIcSt11char_traitsIcESaIcEE10_M_disposeEv,comdat
	.align 2
	.weak	_ZNSt7__cxx1112basic_stringIcSt11char_traitsIcESaIcEE10_M_disposeEv
	.type	_ZNSt7__cxx1112basic_stringIcSt11char_traitsIcESaIcEE10_M_disposeEv, @function
_ZNSt7__cxx1112basic_stringIcSt11char_traitsIcESaIcEE10_M_disposeEv:
.LFB4610:
	.loc 5 229 7
	.cfi_startproc
	pushq	%rbp
	.cfi_def_cfa_offset 16
	.cfi_offset 6, -16
	movq	%rsp, %rbp
	.cfi_def_cfa_register 6
	subq	$16, %rsp
	movq	%rdi, -8(%rbp)
	.loc 5 231 18
	movq	-8(%rbp), %rax
	movq	%rax, %rdi
	call	_ZNKSt7__cxx1112basic_stringIcSt11char_traitsIcESaIcEE11_M_is_localEv
	xorl	$1, %eax
	.loc 5 231 2
	testb	%al, %al
	je	.L320
	.loc 5 232 14
	movq	-8(%rbp), %rax
	movq	16(%rax), %rdx
	movq	-8(%rbp), %rax
	movq	%rdx, %rsi
	movq	%rax, %rdi
	call	_ZNSt7__cxx1112basic_stringIcSt11char_traitsIcESaIcEE10_M_destroyEm
.L320:
	.loc 5 233 7
	nop
	leave
	.cfi_def_cfa 7, 8
	ret
	.cfi_endproc
.LFE4610:
	.size	_ZNSt7__cxx1112basic_stringIcSt11char_traitsIcESaIcEE10_M_disposeEv, .-_ZNSt7__cxx1112basic_stringIcSt11char_traitsIcESaIcEE10_M_disposeEv
	.section	.text._ZNSt7__cxx1112basic_stringIcSt11char_traitsIcESaIcEE16_M_get_allocatorEv,"axG",@progbits,_ZNSt7__cxx1112basic_stringIcSt11char_traitsIcESaIcEE16_M_get_allocatorEv,comdat
	.align 2
	.weak	_ZNSt7__cxx1112basic_stringIcSt11char_traitsIcESaIcEE16_M_get_allocatorEv
	.type	_ZNSt7__cxx1112basic_stringIcSt11char_traitsIcESaIcEE16_M_get_allocatorEv, @function
_ZNSt7__cxx1112basic_stringIcSt11char_traitsIcESaIcEE16_M_get_allocatorEv:
.LFB4611:
	.loc 5 286 7
	.cfi_startproc
	pushq	%rbp
	.cfi_def_cfa_offset 16
	.cfi_offset 6, -16
	movq	%rsp, %rbp
	.cfi_def_cfa_register 6
	movq	%rdi, -8(%rbp)
	.loc 5 287 16
	movq	-8(%rbp), %rax
	.loc 5 287 29
	popq	%rbp
	.cfi_def_cfa 7, 8
	ret
	.cfi_endproc
.LFE4611:
	.size	_ZNSt7__cxx1112basic_stringIcSt11char_traitsIcESaIcEE16_M_get_allocatorEv, .-_ZNSt7__cxx1112basic_stringIcSt11char_traitsIcESaIcEE16_M_get_allocatorEv
	.section	.text._ZSt4moveIRSaIcEEONSt16remove_referenceIT_E4typeEOS3_,"axG",@progbits,_ZSt4moveIRSaIcEEONSt16remove_referenceIT_E4typeEOS3_,comdat
	.weak	_ZSt4moveIRSaIcEEONSt16remove_referenceIT_E4typeEOS3_
	.type	_ZSt4moveIRSaIcEEONSt16remove_referenceIT_E4typeEOS3_, @function
_ZSt4moveIRSaIcEEONSt16remove_referenceIT_E4typeEOS3_:
.LFB4612:
	.loc 14 101 5
	.cfi_startproc
	pushq	%rbp
	.cfi_def_cfa_offset 16
	.cfi_offset 6, -16
	movq	%rsp, %rbp
	.cfi_def_cfa_register 6
	movq	%rdi, -8(%rbp)
	.loc 14 102 74
	movq	-8(%rbp), %rax
	.loc 14 102 77
	popq	%rbp
	.cfi_def_cfa 7, 8
	ret
	.cfi_endproc
.LFE4612:
	.size	_ZSt4moveIRSaIcEEONSt16remove_referenceIT_E4typeEOS3_, .-_ZSt4moveIRSaIcEEONSt16remove_referenceIT_E4typeEOS3_
	.section	.text._ZNSt7__cxx1112basic_stringIcSt11char_traitsIcESaIcEE12_Alloc_hiderC2EPcOS3_,"axG",@progbits,_ZNSt7__cxx1112basic_stringIcSt11char_traitsIcESaIcEE12_Alloc_hiderC5EPcOS3_,comdat
	.align 2
	.weak	_ZNSt7__cxx1112basic_stringIcSt11char_traitsIcESaIcEE12_Alloc_hiderC2EPcOS3_
	.type	_ZNSt7__cxx1112basic_stringIcSt11char_traitsIcESaIcEE12_Alloc_hiderC2EPcOS3_, @function
_ZNSt7__cxx1112basic_stringIcSt11char_traitsIcESaIcEE12_Alloc_hiderC2EPcOS3_:
.LFB4614:
	.loc 5 159 2
	.cfi_startproc
	pushq	%rbp
	.cfi_def_cfa_offset 16
	.cfi_offset 6, -16
	movq	%rsp, %rbp
	.cfi_def_cfa_register 6
	subq	$32, %rsp
	movq	%rdi, -8(%rbp)
	movq	%rsi, -16(%rbp)
	movq	%rdx, -24(%rbp)
.LBB99:
	.loc 5 160 28
	movq	-24(%rbp), %rax
	movq	%rax, %rdi
	call	_ZSt4moveIRSaIcEEONSt16remove_referenceIT_E4typeEOS3_
	movq	%rax, %rdx
	.loc 5 160 46
	movq	-8(%rbp), %rax
	movq	%rdx, %rsi
	movq	%rax, %rdi
	call	_ZNSaIcEC2ERKS_@PLT
	movq	-8(%rbp), %rax
	movq	-16(%rbp), %rdx
	movq	%rdx, (%rax)
.LBE99:
	.loc 5 160 50
	nop
	leave
	.cfi_def_cfa 7, 8
	ret
	.cfi_endproc
.LFE4614:
	.size	_ZNSt7__cxx1112basic_stringIcSt11char_traitsIcESaIcEE12_Alloc_hiderC2EPcOS3_, .-_ZNSt7__cxx1112basic_stringIcSt11char_traitsIcESaIcEE12_Alloc_hiderC2EPcOS3_
	.weak	_ZNSt7__cxx1112basic_stringIcSt11char_traitsIcESaIcEE12_Alloc_hiderC1EPcOS3_
	.set	_ZNSt7__cxx1112basic_stringIcSt11char_traitsIcESaIcEE12_Alloc_hiderC1EPcOS3_,_ZNSt7__cxx1112basic_stringIcSt11char_traitsIcESaIcEE12_Alloc_hiderC2EPcOS3_
	.section	.text._ZNKSt7__cxx1112basic_stringIcSt11char_traitsIcESaIcEE11_M_is_localEv,"axG",@progbits,_ZNKSt7__cxx1112basic_stringIcSt11char_traitsIcESaIcEE11_M_is_localEv,comdat
	.align 2
	.weak	_ZNKSt7__cxx1112basic_stringIcSt11char_traitsIcESaIcEE11_M_is_localEv
	.type	_ZNKSt7__cxx1112basic_stringIcSt11char_traitsIcESaIcEE11_M_is_localEv, @function
_ZNKSt7__cxx1112basic_stringIcSt11char_traitsIcESaIcEE11_M_is_localEv:
.LFB4616:
	.loc 5 221 7
	.cfi_startproc
	pushq	%rbp
	.cfi_def_cfa_offset 16
	.cfi_offset 6, -16
	movq	%rsp, %rbp
	.cfi_def_cfa_register 6
	pushq	%rbx
	subq	$24, %rsp
	.cfi_offset 3, -24
	movq	%rdi, -24(%rbp)
	.loc 5 222 23
	movq	-24(%rbp), %rax
	movq	%rax, %rdi
	call	_ZNKSt7__cxx1112basic_stringIcSt11char_traitsIcESaIcEE7_M_dataEv
	movq	%rax, %rbx
	.loc 5 222 42
	movq	-24(%rbp), %rax
	movq	%rax, %rdi
	call	_ZNKSt7__cxx1112basic_stringIcSt11char_traitsIcESaIcEE13_M_local_dataEv
	.loc 5 222 43
	cmpq	%rax, %rbx
	sete	%al
	.loc 5 222 46
	movq	-8(%rbp), %rbx
	leave
	.cfi_def_cfa 7, 8
	ret
	.cfi_endproc
.LFE4616:
	.size	_ZNKSt7__cxx1112basic_stringIcSt11char_traitsIcESaIcEE11_M_is_localEv, .-_ZNKSt7__cxx1112basic_stringIcSt11char_traitsIcESaIcEE11_M_is_localEv
	.section	.text._ZNSt7__cxx1112basic_stringIcSt11char_traitsIcESaIcEE7_M_dataEPc,"axG",@progbits,_ZNSt7__cxx1112basic_stringIcSt11char_traitsIcESaIcEE7_M_dataEPc,comdat
	.align 2
	.weak	_ZNSt7__cxx1112basic_stringIcSt11char_traitsIcESaIcEE7_M_dataEPc
	.type	_ZNSt7__cxx1112basic_stringIcSt11char_traitsIcESaIcEE7_M_dataEPc, @function
_ZNSt7__cxx1112basic_stringIcSt11char_traitsIcESaIcEE7_M_dataEPc:
.LFB4617:
	.loc 5 178 7
	.cfi_startproc
	pushq	%rbp
	.cfi_def_cfa_offset 16
	.cfi_offset 6, -16
	movq	%rsp, %rbp
	.cfi_def_cfa_register 6
	movq	%rdi, -8(%rbp)
	movq	%rsi, -16(%rbp)
	.loc 5 179 26
	movq	-8(%rbp), %rax
	movq	-16(%rbp), %rdx
	movq	%rdx, (%rax)
	.loc 5 179 33
	nop
	popq	%rbp
	.cfi_def_cfa 7, 8
	ret
	.cfi_endproc
.LFE4617:
	.size	_ZNSt7__cxx1112basic_stringIcSt11char_traitsIcESaIcEE7_M_dataEPc, .-_ZNSt7__cxx1112basic_stringIcSt11char_traitsIcESaIcEE7_M_dataEPc
	.section	.text._ZNSt7__cxx1112basic_stringIcSt11char_traitsIcESaIcEE11_M_capacityEm,"axG",@progbits,_ZNSt7__cxx1112basic_stringIcSt11char_traitsIcESaIcEE11_M_capacityEm,comdat
	.align 2
	.weak	_ZNSt7__cxx1112basic_stringIcSt11char_traitsIcESaIcEE11_M_capacityEm
	.type	_ZNSt7__cxx1112basic_stringIcSt11char_traitsIcESaIcEE11_M_capacityEm, @function
_ZNSt7__cxx1112basic_stringIcSt11char_traitsIcESaIcEE11_M_capacityEm:
.LFB4618:
	.loc 5 210 7
	.cfi_startproc
	pushq	%rbp
	.cfi_def_cfa_offset 16
	.cfi_offset 6, -16
	movq	%rsp, %rbp
	.cfi_def_cfa_register 6
	movq	%rdi, -8(%rbp)
	movq	%rsi, -16(%rbp)
	.loc 5 211 31
	movq	-8(%rbp), %rax
	movq	-16(%rbp), %rdx
	movq	%rdx, 16(%rax)
	.loc 5 211 45
	nop
	popq	%rbp
	.cfi_def_cfa 7, 8
	ret
	.cfi_endproc
.LFE4618:
	.size	_ZNSt7__cxx1112basic_stringIcSt11char_traitsIcESaIcEE11_M_capacityEm, .-_ZNSt7__cxx1112basic_stringIcSt11char_traitsIcESaIcEE11_M_capacityEm
	.section	.text._ZNSt7__cxx1112basic_stringIcSt11char_traitsIcESaIcEE9_M_lengthEm,"axG",@progbits,_ZNSt7__cxx1112basic_stringIcSt11char_traitsIcESaIcEE9_M_lengthEm,comdat
	.align 2
	.weak	_ZNSt7__cxx1112basic_stringIcSt11char_traitsIcESaIcEE9_M_lengthEm
	.type	_ZNSt7__cxx1112basic_stringIcSt11char_traitsIcESaIcEE9_M_lengthEm, @function
_ZNSt7__cxx1112basic_stringIcSt11char_traitsIcESaIcEE9_M_lengthEm:
.LFB4619:
	.loc 5 182 7
	.cfi_startproc
	pushq	%rbp
	.cfi_def_cfa_offset 16
	.cfi_offset 6, -16
	movq	%rsp, %rbp
	.cfi_def_cfa_register 6
	movq	%rdi, -8(%rbp)
	movq	%rsi, -16(%rbp)
	.loc 5 183 26
	movq	-8(%rbp), %rax
	movq	-16(%rbp), %rdx
	movq	%rdx, 8(%rax)
	.loc 5 183 38
	nop
	popq	%rbp
	.cfi_def_cfa 7, 8
	ret
	.cfi_endproc
.LFE4619:
	.size	_ZNSt7__cxx1112basic_stringIcSt11char_traitsIcESaIcEE9_M_lengthEm, .-_ZNSt7__cxx1112basic_stringIcSt11char_traitsIcESaIcEE9_M_lengthEm
	.section	.text._ZNSt7__cxx1112basic_stringIcSt11char_traitsIcESaIcEE13_M_set_lengthEm,"axG",@progbits,_ZNSt7__cxx1112basic_stringIcSt11char_traitsIcESaIcEE13_M_set_lengthEm,comdat
	.align 2
	.weak	_ZNSt7__cxx1112basic_stringIcSt11char_traitsIcESaIcEE13_M_set_lengthEm
	.type	_ZNSt7__cxx1112basic_stringIcSt11char_traitsIcESaIcEE13_M_set_lengthEm, @function
_ZNSt7__cxx1112basic_stringIcSt11char_traitsIcESaIcEE13_M_set_lengthEm:
.LFB4620:
	.loc 5 214 7
	.cfi_startproc
	pushq	%rbp
	.cfi_def_cfa_offset 16
	.cfi_offset 6, -16
	movq	%rsp, %rbp
	.cfi_def_cfa_register 6
	subq	$32, %rsp
	movq	%rdi, -24(%rbp)
	movq	%rsi, -32(%rbp)
	.loc 5 216 11
	movq	-32(%rbp), %rdx
	movq	-24(%rbp), %rax
	movq	%rdx, %rsi
	movq	%rax, %rdi
	call	_ZNSt7__cxx1112basic_stringIcSt11char_traitsIcESaIcEE9_M_lengthEm
	.loc 5 217 21
	movb	$0, -1(%rbp)
	.loc 5 217 29
	movq	-24(%rbp), %rax
	movq	%rax, %rdi
	call	_ZNKSt7__cxx1112basic_stringIcSt11char_traitsIcESaIcEE7_M_dataEv
	.loc 5 217 31
	movq	-32(%rbp), %rdx
	addq	%rax, %rdx
	.loc 5 217 21
	leaq	-1(%rbp), %rax
	movq	%rax, %rsi
	movq	%rdx, %rdi
	call	_ZNSt11char_traitsIcE6assignERcRKc
	.loc 5 218 7
	nop
	leave
	.cfi_def_cfa 7, 8
	ret
	.cfi_endproc
.LFE4620:
	.size	_ZNSt7__cxx1112basic_stringIcSt11char_traitsIcESaIcEE13_M_set_lengthEm, .-_ZNSt7__cxx1112basic_stringIcSt11char_traitsIcESaIcEE13_M_set_lengthEm
	.section	.text._ZNSt7__cxx1112basic_stringIcSt11char_traitsIcESaIcEE12_M_constructIPKcEEvT_S8_,"axG",@progbits,_ZNSt7__cxx1112basic_stringIcSt11char_traitsIcESaIcEE12_M_constructIPKcEEvT_S8_,comdat
	.align 2
	.weak	_ZNSt7__cxx1112basic_stringIcSt11char_traitsIcESaIcEE12_M_constructIPKcEEvT_S8_
	.type	_ZNSt7__cxx1112basic_stringIcSt11char_traitsIcESaIcEE12_M_constructIPKcEEvT_S8_, @function
_ZNSt7__cxx1112basic_stringIcSt11char_traitsIcESaIcEE12_M_constructIPKcEEvT_S8_:
.LFB4632:
	.loc 5 263 9
	.cfi_startproc
	pushq	%rbp
	.cfi_def_cfa_offset 16
	.cfi_offset 6, -16
	movq	%rsp, %rbp
	.cfi_def_cfa_register 6
	subq	$32, %rsp
	movq	%rdi, -8(%rbp)
	movq	%rsi, -16(%rbp)
	movq	%rdx, -24(%rbp)
	.loc 5 266 20
	movq	-24(%rbp), %rdx
	movq	-16(%rbp), %rcx
	movq	-8(%rbp), %rax
	movq	%rcx, %rsi
	movq	%rax, %rdi
	call	_ZNSt7__cxx1112basic_stringIcSt11char_traitsIcESaIcEE16_M_construct_auxIPKcEEvT_S8_St12__false_type
	.loc 5 267 9
	nop
	leave
	.cfi_def_cfa 7, 8
	ret
	.cfi_endproc
.LFE4632:
	.size	_ZNSt7__cxx1112basic_stringIcSt11char_traitsIcESaIcEE12_M_constructIPKcEEvT_S8_, .-_ZNSt7__cxx1112basic_stringIcSt11char_traitsIcESaIcEE12_M_constructIPKcEEvT_S8_
	.section	.text._ZNSt7__cxx1112basic_stringIcSt11char_traitsIcESaIcEEC2ERKS4_,"axG",@progbits,_ZNSt7__cxx1112basic_stringIcSt11char_traitsIcESaIcEEC5ERKS4_,comdat
	.align 2
	.weak	_ZNSt7__cxx1112basic_stringIcSt11char_traitsIcESaIcEEC2ERKS4_
	.type	_ZNSt7__cxx1112basic_stringIcSt11char_traitsIcESaIcEEC2ERKS4_, @function
_ZNSt7__cxx1112basic_stringIcSt11char_traitsIcESaIcEEC2ERKS4_:
.LFB4669:
	.loc 5 448 7
	.cfi_startproc
	.cfi_personality 0x9b,DW.ref.__gxx_personality_v0
	.cfi_lsda 0x1b,.LLSDA4669
	pushq	%rbp
	.cfi_def_cfa_offset 16
	.cfi_offset 6, -16
	movq	%rsp, %rbp
	.cfi_def_cfa_register 6
	pushq	%rbx
	subq	$40, %rsp
	.cfi_offset 3, -24
	movq	%rdi, -40(%rbp)
	movq	%rsi, -48(%rbp)
.LBB100:
	.loc 5 450 65
	movq	-40(%rbp), %rbx
	.loc 5 450 62
	movq	-48(%rbp), %rax
	movq	%rax, %rdi
	call	_ZNKSt7__cxx1112basic_stringIcSt11char_traitsIcESaIcEE16_M_get_allocatorEv
	movq	%rax, %rdx
	.loc 5 450 39
	leaq	-17(%rbp), %rax
	movq	%rdx, %rsi
	movq	%rax, %rdi
.LEHB54:
	call	_ZN9__gnu_cxx14__alloc_traitsISaIcEcE17_S_select_on_copyERKS1_
.LEHE54:
	.loc 5 450 65
	movq	-40(%rbp), %rax
	movq	%rax, %rdi
	call	_ZNSt7__cxx1112basic_stringIcSt11char_traitsIcESaIcEE13_M_local_dataEv
	movq	%rax, %rcx
	leaq	-17(%rbp), %rax
	movq	%rax, %rdx
	movq	%rcx, %rsi
	movq	%rbx, %rdi
	call	_ZNSt7__cxx1112basic_stringIcSt11char_traitsIcESaIcEE12_Alloc_hiderC1EPcOS3_
	.loc 5 450 39
	leaq	-17(%rbp), %rax
	movq	%rax, %rdi
	call	_ZNSaIcED1Ev@PLT
	.loc 5 451 52
	movq	-48(%rbp), %rax
	movq	%rax, %rdi
	call	_ZNKSt7__cxx1112basic_stringIcSt11char_traitsIcESaIcEE7_M_dataEv
	movq	%rax, %rbx
	.loc 5 451 69
	movq	-48(%rbp), %rax
	movq	%rax, %rdi
	call	_ZNKSt7__cxx1112basic_stringIcSt11char_traitsIcESaIcEE6lengthEv
	.loc 5 451 21
	addq	%rax, %rbx
	movq	-48(%rbp), %rax
	movq	%rax, %rdi
	call	_ZNKSt7__cxx1112basic_stringIcSt11char_traitsIcESaIcEE7_M_dataEv
	movq	%rax, %rcx
	movq	-40(%rbp), %rax
	movq	%rbx, %rdx
	movq	%rcx, %rsi
	movq	%rax, %rdi
.LEHB55:
	call	_ZNSt7__cxx1112basic_stringIcSt11char_traitsIcESaIcEE12_M_constructIPcEEvT_S7_
.LEHE55:
.LBE100:
	.loc 5 451 74
	jmp	.L336
.L335:
.LBB101:
	.loc 5 450 65
	movq	%rax, %rbx
	movq	-40(%rbp), %rax
	movq	%rax, %rdi
	call	_ZNSt7__cxx1112basic_stringIcSt11char_traitsIcESaIcEE12_Alloc_hiderD1Ev
	movq	%rbx, %rax
	movq	%rax, %rdi
.LEHB56:
	call	_Unwind_Resume@PLT
.LEHE56:
.L336:
.LBE101:
	.loc 5 451 74
	movq	-8(%rbp), %rbx
	leave
	.cfi_def_cfa 7, 8
	ret
	.cfi_endproc
.LFE4669:
	.section	.gcc_except_table
.LLSDA4669:
	.byte	0xff
	.byte	0xff
	.byte	0x1
	.uleb128 .LLSDACSE4669-.LLSDACSB4669
.LLSDACSB4669:
	.uleb128 .LEHB54-.LFB4669
	.uleb128 .LEHE54-.LEHB54
	.uleb128 0
	.uleb128 0
	.uleb128 .LEHB55-.LFB4669
	.uleb128 .LEHE55-.LEHB55
	.uleb128 .L335-.LFB4669
	.uleb128 0
	.uleb128 .LEHB56-.LFB4669
	.uleb128 .LEHE56-.LEHB56
	.uleb128 0
	.uleb128 0
.LLSDACSE4669:
	.section	.text._ZNSt7__cxx1112basic_stringIcSt11char_traitsIcESaIcEEC2ERKS4_,"axG",@progbits,_ZNSt7__cxx1112basic_stringIcSt11char_traitsIcESaIcEEC5ERKS4_,comdat
	.size	_ZNSt7__cxx1112basic_stringIcSt11char_traitsIcESaIcEEC2ERKS4_, .-_ZNSt7__cxx1112basic_stringIcSt11char_traitsIcESaIcEEC2ERKS4_
	.weak	_ZNSt7__cxx1112basic_stringIcSt11char_traitsIcESaIcEEC1ERKS4_
	.set	_ZNSt7__cxx1112basic_stringIcSt11char_traitsIcESaIcEEC1ERKS4_,_ZNSt7__cxx1112basic_stringIcSt11char_traitsIcESaIcEEC2ERKS4_
	.section	.text._ZNKSt7__cxx1112basic_stringIcSt11char_traitsIcESaIcEE8capacityEv,"axG",@progbits,_ZNKSt7__cxx1112basic_stringIcSt11char_traitsIcESaIcEE8capacityEv,comdat
	.align 2
	.weak	_ZNKSt7__cxx1112basic_stringIcSt11char_traitsIcESaIcEE8capacityEv
	.type	_ZNKSt7__cxx1112basic_stringIcSt11char_traitsIcESaIcEE8capacityEv, @function
_ZNKSt7__cxx1112basic_stringIcSt11char_traitsIcESaIcEE8capacityEv:
.LFB4672:
	.loc 5 964 7
	.cfi_startproc
	pushq	%rbp
	.cfi_def_cfa_offset 16
	.cfi_offset 6, -16
	movq	%rsp, %rbp
	.cfi_def_cfa_register 6
	subq	$16, %rsp
	movq	%rdi, -8(%rbp)
	.loc 5 966 20
	movq	-8(%rbp), %rax
	movq	%rax, %rdi
	call	_ZNKSt7__cxx1112basic_stringIcSt11char_traitsIcESaIcEE11_M_is_localEv
	.loc 5 966 23
	testb	%al, %al
	je	.L338
	.loc 5 966 23 is_stmt 0 discriminator 1
	movl	$15, %eax
	.loc 5 967 25 is_stmt 1 discriminator 1
	jmp	.L340
.L338:
	.loc 5 966 23 discriminator 2
	movq	-8(%rbp), %rax
	movq	16(%rax), %rax
.L340:
	.loc 5 968 7 discriminator 1
	leave
	.cfi_def_cfa 7, 8
	ret
	.cfi_endproc
.LFE4672:
	.size	_ZNKSt7__cxx1112basic_stringIcSt11char_traitsIcESaIcEE8capacityEv, .-_ZNKSt7__cxx1112basic_stringIcSt11char_traitsIcESaIcEE8capacityEv
	.section	.text._ZSt7forwardIbEOT_RNSt16remove_referenceIS0_E4typeE,"axG",@progbits,_ZSt7forwardIbEOT_RNSt16remove_referenceIS0_E4typeE,comdat
	.weak	_ZSt7forwardIbEOT_RNSt16remove_referenceIS0_E4typeE
	.type	_ZSt7forwardIbEOT_RNSt16remove_referenceIS0_E4typeE, @function
_ZSt7forwardIbEOT_RNSt16remove_referenceIS0_E4typeE:
.LFB4677:
	.loc 14 76 5
	.cfi_startproc
	pushq	%rbp
	.cfi_def_cfa_offset 16
	.cfi_offset 6, -16
	movq	%rsp, %rbp
	.cfi_def_cfa_register 6
	movq	%rdi, -8(%rbp)
	.loc 14 77 36
	movq	-8(%rbp), %rax
	.loc 14 77 39
	popq	%rbp
	.cfi_def_cfa 7, 8
	ret
	.cfi_endproc
.LFE4677:
	.size	_ZSt7forwardIbEOT_RNSt16remove_referenceIS0_E4typeE, .-_ZSt7forwardIbEOT_RNSt16remove_referenceIS0_E4typeE
	.section	.text._ZNSt11_Deque_baseIiSaIiEE11_Deque_implD2Ev,"axG",@progbits,_ZNSt11_Deque_baseIiSaIiEE11_Deque_implD5Ev,comdat
	.align 2
	.weak	_ZNSt11_Deque_baseIiSaIiEE11_Deque_implD2Ev
	.type	_ZNSt11_Deque_baseIiSaIiEE11_Deque_implD2Ev, @function
_ZNSt11_Deque_baseIiSaIiEE11_Deque_implD2Ev:
.LFB4684:
	.loc 8 518 14
	.cfi_startproc
	pushq	%rbp
	.cfi_def_cfa_offset 16
	.cfi_offset 6, -16
	movq	%rsp, %rbp
	.cfi_def_cfa_register 6
	subq	$16, %rsp
	movq	%rdi, -8(%rbp)
.LBB102:
	.loc 8 518 14
	movq	-8(%rbp), %rax
	movq	%rax, %rdi
	call	_ZNSaIiED2Ev
.LBE102:
	nop
	leave
	.cfi_def_cfa 7, 8
	ret
	.cfi_endproc
.LFE4684:
	.size	_ZNSt11_Deque_baseIiSaIiEE11_Deque_implD2Ev, .-_ZNSt11_Deque_baseIiSaIiEE11_Deque_implD2Ev
	.weak	_ZNSt11_Deque_baseIiSaIiEE11_Deque_implD1Ev
	.set	_ZNSt11_Deque_baseIiSaIiEE11_Deque_implD1Ev,_ZNSt11_Deque_baseIiSaIiEE11_Deque_implD2Ev
	.section	.text._ZNSt11_Deque_baseIiSaIiEEC2Ev,"axG",@progbits,_ZNSt11_Deque_baseIiSaIiEEC5Ev,comdat
	.align 2
	.weak	_ZNSt11_Deque_baseIiSaIiEEC2Ev
	.type	_ZNSt11_Deque_baseIiSaIiEEC2Ev, @function
_ZNSt11_Deque_baseIiSaIiEEC2Ev:
.LFB4686:
	.loc 8 434 7
	.cfi_startproc
	.cfi_personality 0x9b,DW.ref.__gxx_personality_v0
	.cfi_lsda 0x1b,.LLSDA4686
	pushq	%rbp
	.cfi_def_cfa_offset 16
	.cfi_offset 6, -16
	movq	%rsp, %rbp
	.cfi_def_cfa_register 6
	pushq	%rbx
	subq	$24, %rsp
	.cfi_offset 3, -24
	movq	%rdi, -24(%rbp)
.LBB103:
	.loc 8 435 17
	movq	-24(%rbp), %rax
	movq	%rax, %rdi
	call	_ZNSt11_Deque_baseIiSaIiEE11_Deque_implC1Ev
	.loc 8 436 26
	movq	-24(%rbp), %rax
	movl	$0, %esi
	movq	%rax, %rdi
.LEHB57:
	call	_ZNSt11_Deque_baseIiSaIiEE17_M_initialize_mapEm
.LEHE57:
.LBE103:
	.loc 8 436 31
	jmp	.L347
.L346:
.LBB104:
	.loc 8 435 17
	movq	%rax, %rbx
	movq	-24(%rbp), %rax
	movq	%rax, %rdi
	call	_ZNSt11_Deque_baseIiSaIiEE11_Deque_implD1Ev
	movq	%rbx, %rax
	movq	%rax, %rdi
.LEHB58:
	call	_Unwind_Resume@PLT
.LEHE58:
.L347:
.LBE104:
	.loc 8 436 31
	movq	-8(%rbp), %rbx
	leave
	.cfi_def_cfa 7, 8
	ret
	.cfi_endproc
.LFE4686:
	.section	.gcc_except_table
.LLSDA4686:
	.byte	0xff
	.byte	0xff
	.byte	0x1
	.uleb128 .LLSDACSE4686-.LLSDACSB4686
.LLSDACSB4686:
	.uleb128 .LEHB57-.LFB4686
	.uleb128 .LEHE57-.LEHB57
	.uleb128 .L346-.LFB4686
	.uleb128 0
	.uleb128 .LEHB58-.LFB4686
	.uleb128 .LEHE58-.LEHB58
	.uleb128 0
	.uleb128 0
.LLSDACSE4686:
	.section	.text._ZNSt11_Deque_baseIiSaIiEEC2Ev,"axG",@progbits,_ZNSt11_Deque_baseIiSaIiEEC5Ev,comdat
	.size	_ZNSt11_Deque_baseIiSaIiEEC2Ev, .-_ZNSt11_Deque_baseIiSaIiEEC2Ev
	.weak	_ZNSt11_Deque_baseIiSaIiEEC1Ev
	.set	_ZNSt11_Deque_baseIiSaIiEEC1Ev,_ZNSt11_Deque_baseIiSaIiEEC2Ev
	.section	.text._ZNSt11_Deque_baseIiSaIiEED2Ev,"axG",@progbits,_ZNSt11_Deque_baseIiSaIiEED5Ev,comdat
	.align 2
	.weak	_ZNSt11_Deque_baseIiSaIiEED2Ev
	.type	_ZNSt11_Deque_baseIiSaIiEED2Ev, @function
_ZNSt11_Deque_baseIiSaIiEED2Ev:
.LFB4689:
	.loc 8 593 5
	.cfi_startproc
	pushq	%rbp
	.cfi_def_cfa_offset 16
	.cfi_offset 6, -16
	movq	%rsp, %rbp
	.cfi_def_cfa_register 6
	subq	$16, %rsp
	movq	%rdi, -8(%rbp)
.LBB105:
	.loc 8 596 25
	movq	-8(%rbp), %rax
	movq	(%rax), %rax
	.loc 8 596 7
	testq	%rax, %rax
	je	.L349
	.loc 8 599 31
	movq	-8(%rbp), %rax
	movq	72(%rax), %rax
	.loc 8 598 20
	leaq	8(%rax), %rdx
	movq	-8(%rbp), %rax
	movq	40(%rax), %rcx
	movq	-8(%rbp), %rax
	movq	%rcx, %rsi
	movq	%rax, %rdi
	call	_ZNSt11_Deque_baseIiSaIiEE16_M_destroy_nodesEPPiS3_
	.loc 8 600 21
	movq	-8(%rbp), %rax
	movq	8(%rax), %rdx
	movq	-8(%rbp), %rax
	movq	(%rax), %rcx
	movq	-8(%rbp), %rax
	movq	%rcx, %rsi
	movq	%rax, %rdi
	call	_ZNSt11_Deque_baseIiSaIiEE17_M_deallocate_mapEPPim
.L349:
	.loc 8 602 5
	movq	-8(%rbp), %rax
	movq	%rax, %rdi
	call	_ZNSt11_Deque_baseIiSaIiEE11_Deque_implD1Ev
.LBE105:
	nop
	leave
	.cfi_def_cfa 7, 8
	ret
	.cfi_endproc
.LFE4689:
	.size	_ZNSt11_Deque_baseIiSaIiEED2Ev, .-_ZNSt11_Deque_baseIiSaIiEED2Ev
	.weak	_ZNSt11_Deque_baseIiSaIiEED1Ev
	.set	_ZNSt11_Deque_baseIiSaIiEED1Ev,_ZNSt11_Deque_baseIiSaIiEED2Ev
	.section	.text._ZNSt5dequeIiSaIiEED2Ev,"axG",@progbits,_ZNSt5dequeIiSaIiEED5Ev,comdat
	.align 2
	.weak	_ZNSt5dequeIiSaIiEED2Ev
	.type	_ZNSt5dequeIiSaIiEED2Ev, @function
_ZNSt5dequeIiSaIiEED2Ev:
.LFB4692:
	.loc 8 1003 7
	.cfi_startproc
	.cfi_personality 0x9b,DW.ref.__gxx_personality_v0
	.cfi_lsda 0x1b,.LLSDA4692
	pushq	%rbp
	.cfi_def_cfa_offset 16
	.cfi_offset 6, -16
	movq	%rsp, %rbp
	.cfi_def_cfa_register 6
	pushq	%rbx
	subq	$88, %rsp
	.cfi_offset 3, -24
	movq	%rdi, -88(%rbp)
.LBB106:
	.loc 8 1004 60
	movq	-88(%rbp), %rax
	movq	%rax, %rdi
	call	_ZNSt11_Deque_baseIiSaIiEE19_M_get_Tp_allocatorEv
	movq	%rax, %rbx
	.loc 8 1004 37
	leaq	-80(%rbp), %rax
	movq	-88(%rbp), %rdx
	movq	%rdx, %rsi
	movq	%rax, %rdi
	call	_ZNSt5dequeIiSaIiEE3endEv
	.loc 8 1004 30
	leaq	-48(%rbp), %rax
	movq	-88(%rbp), %rdx
	movq	%rdx, %rsi
	movq	%rax, %rdi
	call	_ZNSt5dequeIiSaIiEE5beginEv
	.loc 8 1004 24
	leaq	-80(%rbp), %rdx
	leaq	-48(%rbp), %rsi
	movq	-88(%rbp), %rax
	movq	%rbx, %rcx
	movq	%rax, %rdi
	call	_ZNSt5dequeIiSaIiEE15_M_destroy_dataESt15_Deque_iteratorIiRiPiES5_RKS0_
	.loc 8 1004 65
	movq	-88(%rbp), %rax
	movq	%rax, %rdi
	call	_ZNSt11_Deque_baseIiSaIiEED2Ev
.LBE106:
	nop
	movq	-8(%rbp), %rbx
	leave
	.cfi_def_cfa 7, 8
	ret
	.cfi_endproc
.LFE4692:
	.section	.gcc_except_table
.LLSDA4692:
	.byte	0xff
	.byte	0xff
	.byte	0x1
	.uleb128 .LLSDACSE4692-.LLSDACSB4692
.LLSDACSB4692:
.LLSDACSE4692:
	.section	.text._ZNSt5dequeIiSaIiEED2Ev,"axG",@progbits,_ZNSt5dequeIiSaIiEED5Ev,comdat
	.size	_ZNSt5dequeIiSaIiEED2Ev, .-_ZNSt5dequeIiSaIiEED2Ev
	.weak	_ZNSt5dequeIiSaIiEED1Ev
	.set	_ZNSt5dequeIiSaIiEED1Ev,_ZNSt5dequeIiSaIiEED2Ev
	.section	.text._ZN9__gnu_cxx13new_allocatorISt4pairIKNSt7__cxx1112basic_stringIcSt11char_traitsIcESaIcEEEiEEC2Ev,"axG",@progbits,_ZN9__gnu_cxx13new_allocatorISt4pairIKNSt7__cxx1112basic_stringIcSt11char_traitsIcESaIcEEEiEEC5Ev,comdat
	.align 2
	.weak	_ZN9__gnu_cxx13new_allocatorISt4pairIKNSt7__cxx1112basic_stringIcSt11char_traitsIcESaIcEEEiEEC2Ev
	.type	_ZN9__gnu_cxx13new_allocatorISt4pairIKNSt7__cxx1112basic_stringIcSt11char_traitsIcESaIcEEEiEEC2Ev, @function
_ZN9__gnu_cxx13new_allocatorISt4pairIKNSt7__cxx1112basic_stringIcSt11char_traitsIcESaIcEEEiEEC2Ev:
.LFB4695:
	.file 19 "/usr/include/c++/10/ext/new_allocator.h"
	.loc 19 79 7
	.cfi_startproc
	pushq	%rbp
	.cfi_def_cfa_offset 16
	.cfi_offset 6, -16
	movq	%rsp, %rbp
	.cfi_def_cfa_register 6
	movq	%rdi, -8(%rbp)
	.loc 19 79 47
	nop
	popq	%rbp
	.cfi_def_cfa 7, 8
	ret
	.cfi_endproc
.LFE4695:
	.size	_ZN9__gnu_cxx13new_allocatorISt4pairIKNSt7__cxx1112basic_stringIcSt11char_traitsIcESaIcEEEiEEC2Ev, .-_ZN9__gnu_cxx13new_allocatorISt4pairIKNSt7__cxx1112basic_stringIcSt11char_traitsIcESaIcEEEiEEC2Ev
	.weak	_ZN9__gnu_cxx13new_allocatorISt4pairIKNSt7__cxx1112basic_stringIcSt11char_traitsIcESaIcEEEiEEC1Ev
	.set	_ZN9__gnu_cxx13new_allocatorISt4pairIKNSt7__cxx1112basic_stringIcSt11char_traitsIcESaIcEEEiEEC1Ev,_ZN9__gnu_cxx13new_allocatorISt4pairIKNSt7__cxx1112basic_stringIcSt11char_traitsIcESaIcEEEiEEC2Ev
	.section	.text._ZNSt10_HashtableINSt7__cxx1112basic_stringIcSt11char_traitsIcESaIcEEESt4pairIKS5_iESaIS8_ENSt8__detail10_Select1stESt8equal_toIS5_ESt4hashIS5_ENSA_18_Mod_range_hashingENSA_20_Default_ranged_hashENSA_20_Prime_rehash_policyENSA_17_Hashtable_traitsILb1ELb0ELb1EEEEC2ESt16initializer_listIS8_EmRKSF_RKSD_RKS9_,"axG",@progbits,_ZNSt10_HashtableINSt7__cxx1112basic_stringIcSt11char_traitsIcESaIcEEESt4pairIKS5_iESaIS8_ENSt8__detail10_Select1stESt8equal_toIS5_ESt4hashIS5_ENSA_18_Mod_range_hashingENSA_20_Default_ranged_hashENSA_20_Prime_rehash_policyENSA_17_Hashtable_traitsILb1ELb0ELb1EEEEC5ESt16initializer_listIS8_EmRKSF_RKSD_RKS9_,comdat
	.align 2
	.weak	_ZNSt10_HashtableINSt7__cxx1112basic_stringIcSt11char_traitsIcESaIcEEESt4pairIKS5_iESaIS8_ENSt8__detail10_Select1stESt8equal_toIS5_ESt4hashIS5_ENSA_18_Mod_range_hashingENSA_20_Default_ranged_hashENSA_20_Prime_rehash_policyENSA_17_Hashtable_traitsILb1ELb0ELb1EEEEC2ESt16initializer_listIS8_EmRKSF_RKSD_RKS9_
	.type	_ZNSt10_HashtableINSt7__cxx1112basic_stringIcSt11char_traitsIcESaIcEEESt4pairIKS5_iESaIS8_ENSt8__detail10_Select1stESt8equal_toIS5_ESt4hashIS5_ENSA_18_Mod_range_hashingENSA_20_Default_ranged_hashENSA_20_Prime_rehash_policyENSA_17_Hashtable_traitsILb1ELb0ELb1EEEEC2ESt16initializer_listIS8_EmRKSF_RKSD_RKS9_, @function
_ZNSt10_HashtableINSt7__cxx1112basic_stringIcSt11char_traitsIcESaIcEEESt4pairIKS5_iESaIS8_ENSt8__detail10_Select1stESt8equal_toIS5_ESt4hashIS5_ENSA_18_Mod_range_hashingENSA_20_Default_ranged_hashENSA_20_Prime_rehash_policyENSA_17_Hashtable_traitsILb1ELb0ELb1EEEEC2ESt16initializer_listIS8_EmRKSF_RKSD_RKS9_:
.LFB4698:
	.loc 11 497 7
	.cfi_startproc
	pushq	%rbp
	.cfi_def_cfa_offset 16
	.cfi_offset 6, -16
	movq	%rsp, %rbp
	.cfi_def_cfa_register 6
	pushq	%rbx
	subq	$72, %rsp
	.cfi_offset 3, -24
	movq	%rdi, -40(%rbp)
	movq	%rsi, %rax
	movq	%rdx, %rsi
	movq	%rsi, %rdx
	movq	%rax, -64(%rbp)
	movq	%rdx, -56(%rbp)
	movq	%rcx, -48(%rbp)
	movq	%r8, -72(%rbp)
	movq	%r9, -80(%rbp)
.LBB107:
	.loc 11 504 26
	leaq	-64(%rbp), %rax
	movq	%rax, %rdi
	call	_ZNKSt16initializer_listISt4pairIKNSt7__cxx1112basic_stringIcSt11char_traitsIcESaIcEEEiEE3endEv
	movq	%rax, %rbx
	leaq	-64(%rbp), %rax
	movq	%rax, %rdi
	call	_ZNKSt16initializer_listISt4pairIKNSt7__cxx1112basic_stringIcSt11char_traitsIcESaIcEEEiEE5beginEv
	movq	%rax, %rsi
	leaq	-17(%rbp), %r8
	movq	-72(%rbp), %rdi
	movq	-48(%rbp), %rdx
	movq	-40(%rbp), %rax
	pushq	16(%rbp)
	leaq	-19(%rbp), %rcx
	pushq	%rcx
	pushq	-80(%rbp)
	leaq	-18(%rbp), %rcx
	pushq	%rcx
	movq	%r8, %r9
	movq	%rdi, %r8
	movq	%rdx, %rcx
	movq	%rbx, %rdx
	movq	%rax, %rdi
	call	_ZNSt10_HashtableINSt7__cxx1112basic_stringIcSt11char_traitsIcESaIcEEESt4pairIKS5_iESaIS8_ENSt8__detail10_Select1stESt8equal_toIS5_ESt4hashIS5_ENSA_18_Mod_range_hashingENSA_20_Default_ranged_hashENSA_20_Prime_rehash_policyENSA_17_Hashtable_traitsILb1ELb0ELb1EEEEC1IPKS8_EET_SP_mRKSF_RKSG_RKSH_RKSD_RKSB_RKS9_
	addq	$32, %rsp
.LBE107:
	.loc 11 505 9
	nop
	movq	-8(%rbp), %rbx
	leave
	.cfi_def_cfa 7, 8
	ret
	.cfi_endproc
.LFE4698:
	.size	_ZNSt10_HashtableINSt7__cxx1112basic_stringIcSt11char_traitsIcESaIcEEESt4pairIKS5_iESaIS8_ENSt8__detail10_Select1stESt8equal_toIS5_ESt4hashIS5_ENSA_18_Mod_range_hashingENSA_20_Default_ranged_hashENSA_20_Prime_rehash_policyENSA_17_Hashtable_traitsILb1ELb0ELb1EEEEC2ESt16initializer_listIS8_EmRKSF_RKSD_RKS9_, .-_ZNSt10_HashtableINSt7__cxx1112basic_stringIcSt11char_traitsIcESaIcEEESt4pairIKS5_iESaIS8_ENSt8__detail10_Select1stESt8equal_toIS5_ESt4hashIS5_ENSA_18_Mod_range_hashingENSA_20_Default_ranged_hashENSA_20_Prime_rehash_policyENSA_17_Hashtable_traitsILb1ELb0ELb1EEEEC2ESt16initializer_listIS8_EmRKSF_RKSD_RKS9_
	.weak	_ZNSt10_HashtableINSt7__cxx1112basic_stringIcSt11char_traitsIcESaIcEEESt4pairIKS5_iESaIS8_ENSt8__detail10_Select1stESt8equal_toIS5_ESt4hashIS5_ENSA_18_Mod_range_hashingENSA_20_Default_ranged_hashENSA_20_Prime_rehash_policyENSA_17_Hashtable_traitsILb1ELb0ELb1EEEEC1ESt16initializer_listIS8_EmRKSF_RKSD_RKS9_
	.set	_ZNSt10_HashtableINSt7__cxx1112basic_stringIcSt11char_traitsIcESaIcEEESt4pairIKS5_iESaIS8_ENSt8__detail10_Select1stESt8equal_toIS5_ESt4hashIS5_ENSA_18_Mod_range_hashingENSA_20_Default_ranged_hashENSA_20_Prime_rehash_policyENSA_17_Hashtable_traitsILb1ELb0ELb1EEEEC1ESt16initializer_listIS8_EmRKSF_RKSD_RKS9_,_ZNSt10_HashtableINSt7__cxx1112basic_stringIcSt11char_traitsIcESaIcEEESt4pairIKS5_iESaIS8_ENSt8__detail10_Select1stESt8equal_toIS5_ESt4hashIS5_ENSA_18_Mod_range_hashingENSA_20_Default_ranged_hashENSA_20_Prime_rehash_policyENSA_17_Hashtable_traitsILb1ELb0ELb1EEEEC2ESt16initializer_listIS8_EmRKSF_RKSD_RKS9_
	.section	.text._ZNSaINSt8__detail10_Hash_nodeISt4pairIKNSt7__cxx1112basic_stringIcSt11char_traitsIcESaIcEEEiELb1EEEED2Ev,"axG",@progbits,_ZNSaINSt8__detail10_Hash_nodeISt4pairIKNSt7__cxx1112basic_stringIcSt11char_traitsIcESaIcEEEiELb1EEEED5Ev,comdat
	.align 2
	.weak	_ZNSaINSt8__detail10_Hash_nodeISt4pairIKNSt7__cxx1112basic_stringIcSt11char_traitsIcESaIcEEEiELb1EEEED2Ev
	.type	_ZNSaINSt8__detail10_Hash_nodeISt4pairIKNSt7__cxx1112basic_stringIcSt11char_traitsIcESaIcEEEiELb1EEEED2Ev, @function
_ZNSaINSt8__detail10_Hash_nodeISt4pairIKNSt7__cxx1112basic_stringIcSt11char_traitsIcESaIcEEEiELb1EEEED2Ev:
.LFB4701:
	.loc 16 162 7
	.cfi_startproc
	pushq	%rbp
	.cfi_def_cfa_offset 16
	.cfi_offset 6, -16
	movq	%rsp, %rbp
	.cfi_def_cfa_register 6
	movq	%rdi, -8(%rbp)
	.loc 16 162 39
	nop
	popq	%rbp
	.cfi_def_cfa 7, 8
	ret
	.cfi_endproc
.LFE4701:
	.size	_ZNSaINSt8__detail10_Hash_nodeISt4pairIKNSt7__cxx1112basic_stringIcSt11char_traitsIcESaIcEEEiELb1EEEED2Ev, .-_ZNSaINSt8__detail10_Hash_nodeISt4pairIKNSt7__cxx1112basic_stringIcSt11char_traitsIcESaIcEEEiELb1EEEED2Ev
	.weak	_ZNSaINSt8__detail10_Hash_nodeISt4pairIKNSt7__cxx1112basic_stringIcSt11char_traitsIcESaIcEEEiELb1EEEED1Ev
	.set	_ZNSaINSt8__detail10_Hash_nodeISt4pairIKNSt7__cxx1112basic_stringIcSt11char_traitsIcESaIcEEEiELb1EEEED1Ev,_ZNSaINSt8__detail10_Hash_nodeISt4pairIKNSt7__cxx1112basic_stringIcSt11char_traitsIcESaIcEEEiELb1EEEED2Ev
	.section	.text._ZNSt10_HashtableINSt7__cxx1112basic_stringIcSt11char_traitsIcESaIcEEESt4pairIKS5_iESaIS8_ENSt8__detail10_Select1stESt8equal_toIS5_ESt4hashIS5_ENSA_18_Mod_range_hashingENSA_20_Default_ranged_hashENSA_20_Prime_rehash_policyENSA_17_Hashtable_traitsILb1ELb0ELb1EEEE5clearEv,"axG",@progbits,_ZNSt10_HashtableINSt7__cxx1112basic_stringIcSt11char_traitsIcESaIcEEESt4pairIKS5_iESaIS8_ENSt8__detail10_Select1stESt8equal_toIS5_ESt4hashIS5_ENSA_18_Mod_range_hashingENSA_20_Default_ranged_hashENSA_20_Prime_rehash_policyENSA_17_Hashtable_traitsILb1ELb0ELb1EEEE5clearEv,comdat
	.align 2
	.weak	_ZNSt10_HashtableINSt7__cxx1112basic_stringIcSt11char_traitsIcESaIcEEESt4pairIKS5_iESaIS8_ENSt8__detail10_Select1stESt8equal_toIS5_ESt4hashIS5_ENSA_18_Mod_range_hashingENSA_20_Default_ranged_hashENSA_20_Prime_rehash_policyENSA_17_Hashtable_traitsILb1ELb0ELb1EEEE5clearEv
	.type	_ZNSt10_HashtableINSt7__cxx1112basic_stringIcSt11char_traitsIcESaIcEEESt4pairIKS5_iESaIS8_ENSt8__detail10_Select1stESt8equal_toIS5_ESt4hashIS5_ENSA_18_Mod_range_hashingENSA_20_Default_ranged_hashENSA_20_Prime_rehash_policyENSA_17_Hashtable_traitsILb1ELb0ELb1EEEE5clearEv, @function
_ZNSt10_HashtableINSt7__cxx1112basic_stringIcSt11char_traitsIcESaIcEEESt4pairIKS5_iESaIS8_ENSt8__detail10_Select1stESt8equal_toIS5_ESt4hashIS5_ENSA_18_Mod_range_hashingENSA_20_Default_ranged_hashENSA_20_Prime_rehash_policyENSA_17_Hashtable_traitsILb1ELb0ELb1EEEE5clearEv:
.LFB4703:
	.loc 11 2026 5
	.cfi_startproc
	.cfi_personality 0x9b,DW.ref.__gxx_personality_v0
	.cfi_lsda 0x1b,.LLSDA4703
	pushq	%rbp
	.cfi_def_cfa_offset 16
	.cfi_offset 6, -16
	movq	%rsp, %rbp
	.cfi_def_cfa_register 6
	subq	$16, %rsp
	movq	%rdi, -8(%rbp)
	.loc 11 2030 32
	movq	-8(%rbp), %rax
	movq	%rax, %rdi
	call	_ZNKSt10_HashtableINSt7__cxx1112basic_stringIcSt11char_traitsIcESaIcEEESt4pairIKS5_iESaIS8_ENSt8__detail10_Select1stESt8equal_toIS5_ESt4hashIS5_ENSA_18_Mod_range_hashingENSA_20_Default_ranged_hashENSA_20_Prime_rehash_policyENSA_17_Hashtable_traitsILb1ELb0ELb1EEEE8_M_beginEv
	movq	%rax, %rdx
	movq	-8(%rbp), %rax
	movq	%rdx, %rsi
	movq	%rax, %rdi
	call	_ZNSt8__detail16_Hashtable_allocISaINS_10_Hash_nodeISt4pairIKNSt7__cxx1112basic_stringIcSt11char_traitsIcESaIcEEEiELb1EEEEE19_M_deallocate_nodesEPSB_
	.loc 11 2031 39
	movq	-8(%rbp), %rax
	movq	8(%rax), %rax
	.loc 11 2031 23
	leaq	0(,%rax,8), %rdx
	.loc 11 2031 24
	movq	-8(%rbp), %rax
	movq	(%rax), %rax
	.loc 11 2031 23
	movl	$0, %esi
	movq	%rax, %rdi
	call	memset@PLT
	.loc 11 2032 24
	movq	-8(%rbp), %rax
	movq	$0, 24(%rax)
	.loc 11 2033 30
	movq	-8(%rbp), %rax
	movq	$0, 16(%rax)
	.loc 11 2034 5
	nop
	leave
	.cfi_def_cfa 7, 8
	ret
	.cfi_endproc
.LFE4703:
	.section	.gcc_except_table
.LLSDA4703:
	.byte	0xff
	.byte	0xff
	.byte	0x1
	.uleb128 .LLSDACSE4703-.LLSDACSB4703
.LLSDACSB4703:
.LLSDACSE4703:
	.section	.text._ZNSt10_HashtableINSt7__cxx1112basic_stringIcSt11char_traitsIcESaIcEEESt4pairIKS5_iESaIS8_ENSt8__detail10_Select1stESt8equal_toIS5_ESt4hashIS5_ENSA_18_Mod_range_hashingENSA_20_Default_ranged_hashENSA_20_Prime_rehash_policyENSA_17_Hashtable_traitsILb1ELb0ELb1EEEE5clearEv,"axG",@progbits,_ZNSt10_HashtableINSt7__cxx1112basic_stringIcSt11char_traitsIcESaIcEEESt4pairIKS5_iESaIS8_ENSt8__detail10_Select1stESt8equal_toIS5_ESt4hashIS5_ENSA_18_Mod_range_hashingENSA_20_Default_ranged_hashENSA_20_Prime_rehash_policyENSA_17_Hashtable_traitsILb1ELb0ELb1EEEE5clearEv,comdat
	.size	_ZNSt10_HashtableINSt7__cxx1112basic_stringIcSt11char_traitsIcESaIcEEESt4pairIKS5_iESaIS8_ENSt8__detail10_Select1stESt8equal_toIS5_ESt4hashIS5_ENSA_18_Mod_range_hashingENSA_20_Default_ranged_hashENSA_20_Prime_rehash_policyENSA_17_Hashtable_traitsILb1ELb0ELb1EEEE5clearEv, .-_ZNSt10_HashtableINSt7__cxx1112basic_stringIcSt11char_traitsIcESaIcEEESt4pairIKS5_iESaIS8_ENSt8__detail10_Select1stESt8equal_toIS5_ESt4hashIS5_ENSA_18_Mod_range_hashingENSA_20_Default_ranged_hashENSA_20_Prime_rehash_policyENSA_17_Hashtable_traitsILb1ELb0ELb1EEEE5clearEv
	.section	.text._ZNSt10_HashtableINSt7__cxx1112basic_stringIcSt11char_traitsIcESaIcEEESt4pairIKS5_iESaIS8_ENSt8__detail10_Select1stESt8equal_toIS5_ESt4hashIS5_ENSA_18_Mod_range_hashingENSA_20_Default_ranged_hashENSA_20_Prime_rehash_policyENSA_17_Hashtable_traitsILb1ELb0ELb1EEEE21_M_deallocate_bucketsEv,"axG",@progbits,_ZNSt10_HashtableINSt7__cxx1112basic_stringIcSt11char_traitsIcESaIcEEESt4pairIKS5_iESaIS8_ENSt8__detail10_Select1stESt8equal_toIS5_ESt4hashIS5_ENSA_18_Mod_range_hashingENSA_20_Default_ranged_hashENSA_20_Prime_rehash_policyENSA_17_Hashtable_traitsILb1ELb0ELb1EEEE21_M_deallocate_bucketsEv,comdat
	.align 2
	.weak	_ZNSt10_HashtableINSt7__cxx1112basic_stringIcSt11char_traitsIcESaIcEEESt4pairIKS5_iESaIS8_ENSt8__detail10_Select1stESt8equal_toIS5_ESt4hashIS5_ENSA_18_Mod_range_hashingENSA_20_Default_ranged_hashENSA_20_Prime_rehash_policyENSA_17_Hashtable_traitsILb1ELb0ELb1EEEE21_M_deallocate_bucketsEv
	.type	_ZNSt10_HashtableINSt7__cxx1112basic_stringIcSt11char_traitsIcESaIcEEESt4pairIKS5_iESaIS8_ENSt8__detail10_Select1stESt8equal_toIS5_ESt4hashIS5_ENSA_18_Mod_range_hashingENSA_20_Default_ranged_hashENSA_20_Prime_rehash_policyENSA_17_Hashtable_traitsILb1ELb0ELb1EEEE21_M_deallocate_bucketsEv, @function
_ZNSt10_HashtableINSt7__cxx1112basic_stringIcSt11char_traitsIcESaIcEEESt4pairIKS5_iESaIS8_ENSt8__detail10_Select1stESt8equal_toIS5_ESt4hashIS5_ENSA_18_Mod_range_hashingENSA_20_Default_ranged_hashENSA_20_Prime_rehash_policyENSA_17_Hashtable_traitsILb1ELb0ELb1EEEE21_M_deallocate_bucketsEv:
.LFB4704:
	.loc 11 411 7
	.cfi_startproc
	pushq	%rbp
	.cfi_def_cfa_offset 16
	.cfi_offset 6, -16
	movq	%rsp, %rbp
	.cfi_def_cfa_register 6
	subq	$16, %rsp
	movq	%rdi, -8(%rbp)
	.loc 11 412 30
	movq	-8(%rbp), %rax
	movq	8(%rax), %rdx
	movq	-8(%rbp), %rax
	movq	(%rax), %rcx
	movq	-8(%rbp), %rax
	movq	%rcx, %rsi
	movq	%rax, %rdi
	call	_ZNSt10_HashtableINSt7__cxx1112basic_stringIcSt11char_traitsIcESaIcEEESt4pairIKS5_iESaIS8_ENSt8__detail10_Select1stESt8equal_toIS5_ESt4hashIS5_ENSA_18_Mod_range_hashingENSA_20_Default_ranged_hashENSA_20_Prime_rehash_policyENSA_17_Hashtable_traitsILb1ELb0ELb1EEEE21_M_deallocate_bucketsEPPNSA_15_Hash_node_baseEm
	.loc 11 412 61
	nop
	leave
	.cfi_def_cfa 7, 8
	ret
	.cfi_endproc
.LFE4704:
	.size	_ZNSt10_HashtableINSt7__cxx1112basic_stringIcSt11char_traitsIcESaIcEEESt4pairIKS5_iESaIS8_ENSt8__detail10_Select1stESt8equal_toIS5_ESt4hashIS5_ENSA_18_Mod_range_hashingENSA_20_Default_ranged_hashENSA_20_Prime_rehash_policyENSA_17_Hashtable_traitsILb1ELb0ELb1EEEE21_M_deallocate_bucketsEv, .-_ZNSt10_HashtableINSt7__cxx1112basic_stringIcSt11char_traitsIcESaIcEEESt4pairIKS5_iESaIS8_ENSt8__detail10_Select1stESt8equal_toIS5_ESt4hashIS5_ENSA_18_Mod_range_hashingENSA_20_Default_ranged_hashENSA_20_Prime_rehash_policyENSA_17_Hashtable_traitsILb1ELb0ELb1EEEE21_M_deallocate_bucketsEv
	.section	.text._ZN9__gnu_cxx13new_allocatorINSt8__detail10_Hash_nodeISt4pairIKi16participant_infoELb0EEEEC2Ev,"axG",@progbits,_ZN9__gnu_cxx13new_allocatorINSt8__detail10_Hash_nodeISt4pairIKi16participant_infoELb0EEEEC5Ev,comdat
	.align 2
	.weak	_ZN9__gnu_cxx13new_allocatorINSt8__detail10_Hash_nodeISt4pairIKi16participant_infoELb0EEEEC2Ev
	.type	_ZN9__gnu_cxx13new_allocatorINSt8__detail10_Hash_nodeISt4pairIKi16participant_infoELb0EEEEC2Ev, @function
_ZN9__gnu_cxx13new_allocatorINSt8__detail10_Hash_nodeISt4pairIKi16participant_infoELb0EEEEC2Ev:
.LFB4706:
	.loc 19 79 7
	.cfi_startproc
	pushq	%rbp
	.cfi_def_cfa_offset 16
	.cfi_offset 6, -16
	movq	%rsp, %rbp
	.cfi_def_cfa_register 6
	movq	%rdi, -8(%rbp)
	.loc 19 79 47
	nop
	popq	%rbp
	.cfi_def_cfa 7, 8
	ret
	.cfi_endproc
.LFE4706:
	.size	_ZN9__gnu_cxx13new_allocatorINSt8__detail10_Hash_nodeISt4pairIKi16participant_infoELb0EEEEC2Ev, .-_ZN9__gnu_cxx13new_allocatorINSt8__detail10_Hash_nodeISt4pairIKi16participant_infoELb0EEEEC2Ev
	.weak	_ZN9__gnu_cxx13new_allocatorINSt8__detail10_Hash_nodeISt4pairIKi16participant_infoELb0EEEEC1Ev
	.set	_ZN9__gnu_cxx13new_allocatorINSt8__detail10_Hash_nodeISt4pairIKi16participant_infoELb0EEEEC1Ev,_ZN9__gnu_cxx13new_allocatorINSt8__detail10_Hash_nodeISt4pairIKi16participant_infoELb0EEEEC2Ev
	.section	.text._ZNSt10_HashtableIiSt4pairIKi16participant_infoESaIS3_ENSt8__detail10_Select1stESt8equal_toIiESt4hashIiENS5_18_Mod_range_hashingENS5_20_Default_ranged_hashENS5_20_Prime_rehash_policyENS5_17_Hashtable_traitsILb0ELb0ELb1EEEE5clearEv,"axG",@progbits,_ZNSt10_HashtableIiSt4pairIKi16participant_infoESaIS3_ENSt8__detail10_Select1stESt8equal_toIiESt4hashIiENS5_18_Mod_range_hashingENS5_20_Default_ranged_hashENS5_20_Prime_rehash_policyENS5_17_Hashtable_traitsILb0ELb0ELb1EEEE5clearEv,comdat
	.align 2
	.weak	_ZNSt10_HashtableIiSt4pairIKi16participant_infoESaIS3_ENSt8__detail10_Select1stESt8equal_toIiESt4hashIiENS5_18_Mod_range_hashingENS5_20_Default_ranged_hashENS5_20_Prime_rehash_policyENS5_17_Hashtable_traitsILb0ELb0ELb1EEEE5clearEv
	.type	_ZNSt10_HashtableIiSt4pairIKi16participant_infoESaIS3_ENSt8__detail10_Select1stESt8equal_toIiESt4hashIiENS5_18_Mod_range_hashingENS5_20_Default_ranged_hashENS5_20_Prime_rehash_policyENS5_17_Hashtable_traitsILb0ELb0ELb1EEEE5clearEv, @function
_ZNSt10_HashtableIiSt4pairIKi16participant_infoESaIS3_ENSt8__detail10_Select1stESt8equal_toIiESt4hashIiENS5_18_Mod_range_hashingENS5_20_Default_ranged_hashENS5_20_Prime_rehash_policyENS5_17_Hashtable_traitsILb0ELb0ELb1EEEE5clearEv:
.LFB4708:
	.loc 11 2026 5
	.cfi_startproc
	.cfi_personality 0x9b,DW.ref.__gxx_personality_v0
	.cfi_lsda 0x1b,.LLSDA4708
	pushq	%rbp
	.cfi_def_cfa_offset 16
	.cfi_offset 6, -16
	movq	%rsp, %rbp
	.cfi_def_cfa_register 6
	subq	$16, %rsp
	movq	%rdi, -8(%rbp)
	.loc 11 2030 32
	movq	-8(%rbp), %rax
	movq	%rax, %rdi
	call	_ZNKSt10_HashtableIiSt4pairIKi16participant_infoESaIS3_ENSt8__detail10_Select1stESt8equal_toIiESt4hashIiENS5_18_Mod_range_hashingENS5_20_Default_ranged_hashENS5_20_Prime_rehash_policyENS5_17_Hashtable_traitsILb0ELb0ELb1EEEE8_M_beginEv
	movq	%rax, %rdx
	movq	-8(%rbp), %rax
	movq	%rdx, %rsi
	movq	%rax, %rdi
	call	_ZNSt8__detail16_Hashtable_allocISaINS_10_Hash_nodeISt4pairIKi16participant_infoELb0EEEEE19_M_deallocate_nodesEPS6_
	.loc 11 2031 39
	movq	-8(%rbp), %rax
	movq	8(%rax), %rax
	.loc 11 2031 23
	leaq	0(,%rax,8), %rdx
	.loc 11 2031 24
	movq	-8(%rbp), %rax
	movq	(%rax), %rax
	.loc 11 2031 23
	movl	$0, %esi
	movq	%rax, %rdi
	call	memset@PLT
	.loc 11 2032 24
	movq	-8(%rbp), %rax
	movq	$0, 24(%rax)
	.loc 11 2033 30
	movq	-8(%rbp), %rax
	movq	$0, 16(%rax)
	.loc 11 2034 5
	nop
	leave
	.cfi_def_cfa 7, 8
	ret
	.cfi_endproc
.LFE4708:
	.section	.gcc_except_table
.LLSDA4708:
	.byte	0xff
	.byte	0xff
	.byte	0x1
	.uleb128 .LLSDACSE4708-.LLSDACSB4708
.LLSDACSB4708:
.LLSDACSE4708:
	.section	.text._ZNSt10_HashtableIiSt4pairIKi16participant_infoESaIS3_ENSt8__detail10_Select1stESt8equal_toIiESt4hashIiENS5_18_Mod_range_hashingENS5_20_Default_ranged_hashENS5_20_Prime_rehash_policyENS5_17_Hashtable_traitsILb0ELb0ELb1EEEE5clearEv,"axG",@progbits,_ZNSt10_HashtableIiSt4pairIKi16participant_infoESaIS3_ENSt8__detail10_Select1stESt8equal_toIiESt4hashIiENS5_18_Mod_range_hashingENS5_20_Default_ranged_hashENS5_20_Prime_rehash_policyENS5_17_Hashtable_traitsILb0ELb0ELb1EEEE5clearEv,comdat
	.size	_ZNSt10_HashtableIiSt4pairIKi16participant_infoESaIS3_ENSt8__detail10_Select1stESt8equal_toIiESt4hashIiENS5_18_Mod_range_hashingENS5_20_Default_ranged_hashENS5_20_Prime_rehash_policyENS5_17_Hashtable_traitsILb0ELb0ELb1EEEE5clearEv, .-_ZNSt10_HashtableIiSt4pairIKi16participant_infoESaIS3_ENSt8__detail10_Select1stESt8equal_toIiESt4hashIiENS5_18_Mod_range_hashingENS5_20_Default_ranged_hashENS5_20_Prime_rehash_policyENS5_17_Hashtable_traitsILb0ELb0ELb1EEEE5clearEv
	.section	.text._ZNSt10_HashtableIiSt4pairIKi16participant_infoESaIS3_ENSt8__detail10_Select1stESt8equal_toIiESt4hashIiENS5_18_Mod_range_hashingENS5_20_Default_ranged_hashENS5_20_Prime_rehash_policyENS5_17_Hashtable_traitsILb0ELb0ELb1EEEE21_M_deallocate_bucketsEv,"axG",@progbits,_ZNSt10_HashtableIiSt4pairIKi16participant_infoESaIS3_ENSt8__detail10_Select1stESt8equal_toIiESt4hashIiENS5_18_Mod_range_hashingENS5_20_Default_ranged_hashENS5_20_Prime_rehash_policyENS5_17_Hashtable_traitsILb0ELb0ELb1EEEE21_M_deallocate_bucketsEv,comdat
	.align 2
	.weak	_ZNSt10_HashtableIiSt4pairIKi16participant_infoESaIS3_ENSt8__detail10_Select1stESt8equal_toIiESt4hashIiENS5_18_Mod_range_hashingENS5_20_Default_ranged_hashENS5_20_Prime_rehash_policyENS5_17_Hashtable_traitsILb0ELb0ELb1EEEE21_M_deallocate_bucketsEv
	.type	_ZNSt10_HashtableIiSt4pairIKi16participant_infoESaIS3_ENSt8__detail10_Select1stESt8equal_toIiESt4hashIiENS5_18_Mod_range_hashingENS5_20_Default_ranged_hashENS5_20_Prime_rehash_policyENS5_17_Hashtable_traitsILb0ELb0ELb1EEEE21_M_deallocate_bucketsEv, @function
_ZNSt10_HashtableIiSt4pairIKi16participant_infoESaIS3_ENSt8__detail10_Select1stESt8equal_toIiESt4hashIiENS5_18_Mod_range_hashingENS5_20_Default_ranged_hashENS5_20_Prime_rehash_policyENS5_17_Hashtable_traitsILb0ELb0ELb1EEEE21_M_deallocate_bucketsEv:
.LFB4709:
	.loc 11 411 7
	.cfi_startproc
	pushq	%rbp
	.cfi_def_cfa_offset 16
	.cfi_offset 6, -16
	movq	%rsp, %rbp
	.cfi_def_cfa_register 6
	subq	$16, %rsp
	movq	%rdi, -8(%rbp)
	.loc 11 412 30
	movq	-8(%rbp), %rax
	movq	8(%rax), %rdx
	movq	-8(%rbp), %rax
	movq	(%rax), %rcx
	movq	-8(%rbp), %rax
	movq	%rcx, %rsi
	movq	%rax, %rdi
	call	_ZNSt10_HashtableIiSt4pairIKi16participant_infoESaIS3_ENSt8__detail10_Select1stESt8equal_toIiESt4hashIiENS5_18_Mod_range_hashingENS5_20_Default_ranged_hashENS5_20_Prime_rehash_policyENS5_17_Hashtable_traitsILb0ELb0ELb1EEEE21_M_deallocate_bucketsEPPNS5_15_Hash_node_baseEm
	.loc 11 412 61
	nop
	leave
	.cfi_def_cfa 7, 8
	ret
	.cfi_endproc
.LFE4709:
	.size	_ZNSt10_HashtableIiSt4pairIKi16participant_infoESaIS3_ENSt8__detail10_Select1stESt8equal_toIiESt4hashIiENS5_18_Mod_range_hashingENS5_20_Default_ranged_hashENS5_20_Prime_rehash_policyENS5_17_Hashtable_traitsILb0ELb0ELb1EEEE21_M_deallocate_bucketsEv, .-_ZNSt10_HashtableIiSt4pairIKi16participant_infoESaIS3_ENSt8__detail10_Select1stESt8equal_toIiESt4hashIiENS5_18_Mod_range_hashingENS5_20_Default_ranged_hashENS5_20_Prime_rehash_policyENS5_17_Hashtable_traitsILb0ELb0ELb1EEEE21_M_deallocate_bucketsEv
	.section	.text._ZNSt5dequeIiSaIiEE9push_backERKi,"axG",@progbits,_ZNSt5dequeIiSaIiEE9push_backERKi,comdat
	.align 2
	.weak	_ZNSt5dequeIiSaIiEE9push_backERKi
	.type	_ZNSt5dequeIiSaIiEE9push_backERKi, @function
_ZNSt5dequeIiSaIiEE9push_backERKi:
.LFB4730:
	.loc 8 1493 7
	.cfi_startproc
	pushq	%rbp
	.cfi_def_cfa_offset 16
	.cfi_offset 6, -16
	movq	%rsp, %rbp
	.cfi_def_cfa_register 6
	subq	$16, %rsp
	movq	%rdi, -8(%rbp)
	movq	%rsi, -16(%rbp)
	.loc 8 1495 30
	movq	-8(%rbp), %rax
	movq	48(%rax), %rdx
	.loc 8 1496 33
	movq	-8(%rbp), %rax
	movq	64(%rax), %rax
	.loc 8 1496 41
	subq	$4, %rax
	.loc 8 1495 2
	cmpq	%rax, %rdx
	je	.L360
	.loc 8 1498 30
	movq	-8(%rbp), %rax
	movq	48(%rax), %rcx
	.loc 8 1498 37
	movq	-8(%rbp), %rax
	.loc 8 1498 30
	movq	-16(%rbp), %rdx
	movq	%rcx, %rsi
	movq	%rax, %rdi
	call	_ZNSt16allocator_traitsISaIiEE9constructIiJRKiEEEvRS0_PT_DpOT0_
	.loc 8 1500 32
	movq	-8(%rbp), %rax
	movq	48(%rax), %rax
	.loc 8 1500 6
	leaq	4(%rax), %rdx
	movq	-8(%rbp), %rax
	movq	%rdx, 48(%rax)
	.loc 8 1504 7
	jmp	.L362
.L360:
	.loc 8 1503 20
	movq	-16(%rbp), %rdx
	movq	-8(%rbp), %rax
	movq	%rdx, %rsi
	movq	%rax, %rdi
	call	_ZNSt5dequeIiSaIiEE16_M_push_back_auxIJRKiEEEvDpOT_
.L362:
	.loc 8 1504 7
	nop
	leave
	.cfi_def_cfa 7, 8
	ret
	.cfi_endproc
.LFE4730:
	.size	_ZNSt5dequeIiSaIiEE9push_backERKi, .-_ZNSt5dequeIiSaIiEE9push_backERKi
	.section	.text._ZNKSt5dequeIiSaIiEE5emptyEv,"axG",@progbits,_ZNKSt5dequeIiSaIiEE5emptyEv,comdat
	.align 2
	.weak	_ZNKSt5dequeIiSaIiEE5emptyEv
	.type	_ZNKSt5dequeIiSaIiEE5emptyEv, @function
_ZNKSt5dequeIiSaIiEE5emptyEv:
.LFB4731:
	.loc 8 1308 7
	.cfi_startproc
	pushq	%rbp
	.cfi_def_cfa_offset 16
	.cfi_offset 6, -16
	movq	%rsp, %rbp
	.cfi_def_cfa_register 6
	subq	$16, %rsp
	movq	%rdi, -8(%rbp)
	.loc 8 1309 57
	movq	-8(%rbp), %rax
	leaq	16(%rax), %rdx
	.loc 8 1309 30
	movq	-8(%rbp), %rax
	addq	$48, %rax
	.loc 8 1309 40
	movq	%rdx, %rsi
	movq	%rax, %rdi
	call	_ZSteqRKSt15_Deque_iteratorIiRiPiES4_
	.loc 8 1309 67
	leave
	.cfi_def_cfa 7, 8
	ret
	.cfi_endproc
.LFE4731:
	.size	_ZNKSt5dequeIiSaIiEE5emptyEv, .-_ZNKSt5dequeIiSaIiEE5emptyEv
	.section	.text._ZNSt5dequeIiSaIiEE5frontEv,"axG",@progbits,_ZNSt5dequeIiSaIiEE5frontEv,comdat
	.align 2
	.weak	_ZNSt5dequeIiSaIiEE5frontEv
	.type	_ZNSt5dequeIiSaIiEE5frontEv, @function
_ZNSt5dequeIiSaIiEE5frontEv:
.LFB4732:
	.loc 8 1402 7
	.cfi_startproc
	pushq	%rbp
	.cfi_def_cfa_offset 16
	.cfi_offset 6, -16
	movq	%rsp, %rbp
	.cfi_def_cfa_register 6
	subq	$48, %rsp
	movq	%rdi, -40(%rbp)
	.loc 8 1405 15
	leaq	-32(%rbp), %rax
	movq	-40(%rbp), %rdx
	movq	%rdx, %rsi
	movq	%rax, %rdi
	call	_ZNSt5dequeIiSaIiEE5beginEv
	.loc 8 1405 9
	leaq	-32(%rbp), %rax
	movq	%rax, %rdi
	call	_ZNKSt15_Deque_iteratorIiRiPiEdeEv
	.loc 8 1406 7
	leave
	.cfi_def_cfa 7, 8
	ret
	.cfi_endproc
.LFE4732:
	.size	_ZNSt5dequeIiSaIiEE5frontEv, .-_ZNSt5dequeIiSaIiEE5frontEv
	.section	.text._ZNSt5dequeIiSaIiEE9pop_frontEv,"axG",@progbits,_ZNSt5dequeIiSaIiEE9pop_frontEv,comdat
	.align 2
	.weak	_ZNSt5dequeIiSaIiEE9pop_frontEv
	.type	_ZNSt5dequeIiSaIiEE9pop_frontEv, @function
_ZNSt5dequeIiSaIiEE9pop_frontEv:
.LFB4733:
	.loc 8 1529 7
	.cfi_startproc
	pushq	%rbp
	.cfi_def_cfa_offset 16
	.cfi_offset 6, -16
	movq	%rsp, %rbp
	.cfi_def_cfa_register 6
	pushq	%rbx
	subq	$24, %rsp
	.cfi_offset 3, -24
	movq	%rdi, -24(%rbp)
	.loc 8 1532 29
	movq	-24(%rbp), %rax
	movq	16(%rax), %rdx
	.loc 8 1533 32
	movq	-24(%rbp), %rax
	movq	32(%rax), %rax
	.loc 8 1533 40
	subq	$4, %rax
	.loc 8 1532 2
	cmpq	%rax, %rdx
	je	.L368
	.loc 8 1535 28
	movq	-24(%rbp), %rax
	movq	16(%rax), %rbx
	.loc 8 1535 48
	movq	-24(%rbp), %rax
	movq	%rax, %rdi
	call	_ZNSt11_Deque_baseIiSaIiEE19_M_get_Tp_allocatorEv
	.loc 8 1535 28
	movq	%rbx, %rsi
	movq	%rax, %rdi
	call	_ZNSt16allocator_traitsISaIiEE7destroyIiEEvRS0_PT_
	.loc 8 1537 31
	movq	-24(%rbp), %rax
	movq	16(%rax), %rax
	.loc 8 1537 6
	leaq	4(%rax), %rdx
	movq	-24(%rbp), %rax
	movq	%rdx, 16(%rax)
	.loc 8 1541 7
	jmp	.L370
.L368:
	.loc 8 1540 20
	movq	-24(%rbp), %rax
	movq	%rax, %rdi
	call	_ZNSt5dequeIiSaIiEE16_M_pop_front_auxEv
.L370:
	.loc 8 1541 7
	nop
	movq	-8(%rbp), %rbx
	leave
	.cfi_def_cfa 7, 8
	ret
	.cfi_endproc
.LFE4733:
	.size	_ZNSt5dequeIiSaIiEE9pop_frontEv, .-_ZNSt5dequeIiSaIiEE9pop_frontEv
	.section	.text._ZNSt7__cxx1112basic_stringIcSt11char_traitsIcESaIcEE9push_backEc,"axG",@progbits,_ZNSt7__cxx1112basic_stringIcSt11char_traitsIcESaIcEE9push_backEc,comdat
	.align 2
	.weak	_ZNSt7__cxx1112basic_stringIcSt11char_traitsIcESaIcEE9push_backEc
	.type	_ZNSt7__cxx1112basic_stringIcSt11char_traitsIcESaIcEE9push_backEc, @function
_ZNSt7__cxx1112basic_stringIcSt11char_traitsIcESaIcEE9push_backEc:
.LFB4734:
	.loc 5 1320 7
	.cfi_startproc
	pushq	%rbp
	.cfi_def_cfa_offset 16
	.cfi_offset 6, -16
	movq	%rsp, %rbp
	.cfi_def_cfa_register 6
	pushq	%rbx
	subq	$40, %rsp
	.cfi_offset 3, -24
	movq	%rdi, -40(%rbp)
	movl	%esi, %eax
	movb	%al, -44(%rbp)
	.loc 5 1322 37
	movq	-40(%rbp), %rax
	movq	%rax, %rdi
	call	_ZNKSt7__cxx1112basic_stringIcSt11char_traitsIcESaIcEE4sizeEv
	movq	%rax, -24(%rbp)
	.loc 5 1323 13
	movq	-24(%rbp), %rax
	leaq	1(%rax), %rbx
	.loc 5 1323 33
	movq	-40(%rbp), %rax
	movq	%rax, %rdi
	call	_ZNKSt7__cxx1112basic_stringIcSt11char_traitsIcESaIcEE8capacityEv
	.loc 5 1323 17
	cmpq	%rax, %rbx
	seta	%al
	.loc 5 1323 2
	testb	%al, %al
	je	.L372
	.loc 5 1324 19
	movq	-24(%rbp), %rsi
	movq	-40(%rbp), %rax
	movl	$1, %r8d
	movl	$0, %ecx
	movl	$0, %edx
	movq	%rax, %rdi
	call	_ZNSt7__cxx1112basic_stringIcSt11char_traitsIcESaIcEE9_M_mutateEmmPKcm
.L372:
	.loc 5 1325 35
	movq	-40(%rbp), %rax
	movq	%rax, %rdi
	call	_ZNKSt7__cxx1112basic_stringIcSt11char_traitsIcESaIcEE7_M_dataEv
	.loc 5 1325 37
	movq	-24(%rbp), %rdx
	addq	%rax, %rdx
	.loc 5 1325 21
	leaq	-44(%rbp), %rax
	movq	%rax, %rsi
	movq	%rdx, %rdi
	call	_ZNSt11char_traitsIcE6assignERcRKc
	.loc 5 1326 21
	movq	-24(%rbp), %rax
	leaq	1(%rax), %rdx
	movq	-40(%rbp), %rax
	movq	%rdx, %rsi
	movq	%rax, %rdi
	call	_ZNSt7__cxx1112basic_stringIcSt11char_traitsIcESaIcEE13_M_set_lengthEm
	.loc 5 1327 7
	nop
	movq	-8(%rbp), %rbx
	leave
	.cfi_def_cfa 7, 8
	ret
	.cfi_endproc
.LFE4734:
	.size	_ZNSt7__cxx1112basic_stringIcSt11char_traitsIcESaIcEE9push_backEc, .-_ZNSt7__cxx1112basic_stringIcSt11char_traitsIcESaIcEE9push_backEc
	.section	.text._ZNSt8__detail9_Map_baseINSt7__cxx1112basic_stringIcSt11char_traitsIcESaIcEEESt4pairIKS6_iESaIS9_ENS_10_Select1stESt8equal_toIS6_ESt4hashIS6_ENS_18_Mod_range_hashingENS_20_Default_ranged_hashENS_20_Prime_rehash_policyENS_17_Hashtable_traitsILb1ELb0ELb1EEELb1EEixERS8_,"axG",@progbits,_ZNSt8__detail9_Map_baseINSt7__cxx1112basic_stringIcSt11char_traitsIcESaIcEEESt4pairIKS6_iESaIS9_ENS_10_Select1stESt8equal_toIS6_ESt4hashIS6_ENS_18_Mod_range_hashingENS_20_Default_ranged_hashENS_20_Prime_rehash_policyENS_17_Hashtable_traitsILb1ELb0ELb1EEELb1EEixERS8_,comdat
	.align 2
	.weak	_ZNSt8__detail9_Map_baseINSt7__cxx1112basic_stringIcSt11char_traitsIcESaIcEEESt4pairIKS6_iESaIS9_ENS_10_Select1stESt8equal_toIS6_ESt4hashIS6_ENS_18_Mod_range_hashingENS_20_Default_ranged_hashENS_20_Prime_rehash_policyENS_17_Hashtable_traitsILb1ELb0ELb1EEELb1EEixERS8_
	.type	_ZNSt8__detail9_Map_baseINSt7__cxx1112basic_stringIcSt11char_traitsIcESaIcEEESt4pairIKS6_iESaIS9_ENS_10_Select1stESt8equal_toIS6_ESt4hashIS6_ENS_18_Mod_range_hashingENS_20_Default_ranged_hashENS_20_Prime_rehash_policyENS_17_Hashtable_traitsILb1ELb0ELb1EEELb1EEixERS8_, @function
_ZNSt8__detail9_Map_baseINSt7__cxx1112basic_stringIcSt11char_traitsIcESaIcEEESt4pairIKS6_iESaIS9_ENS_10_Select1stESt8equal_toIS6_ESt4hashIS6_ENS_18_Mod_range_hashingENS_20_Default_ranged_hashENS_20_Prime_rehash_policyENS_17_Hashtable_traitsILb1ELb0ELb1EEELb1EEixERS8_:
.LFB4735:
	.loc 6 701 5
	.cfi_startproc
	.cfi_personality 0x9b,DW.ref.__gxx_personality_v0
	.cfi_lsda 0x1b,.LLSDA4735
	pushq	%rbp
	.cfi_def_cfa_offset 16
	.cfi_offset 6, -16
	movq	%rsp, %rbp
	.cfi_def_cfa_register 6
	pushq	%rbx
	subq	$104, %rsp
	.cfi_offset 3, -24
	movq	%rdi, -104(%rbp)
	movq	%rsi, -112(%rbp)
	.loc 6 706 20
	movq	-104(%rbp), %rax
	movq	%rax, -24(%rbp)
	.loc 6 707 45
	movq	-112(%rbp), %rdx
	movq	-24(%rbp), %rax
	movq	%rdx, %rsi
	movq	%rax, %rdi
.LEHB59:
	call	_ZNKSt8__detail15_Hash_code_baseINSt7__cxx1112basic_stringIcSt11char_traitsIcESaIcEEESt4pairIKS6_iENS_10_Select1stESt4hashIS6_ENS_18_Mod_range_hashingENS_20_Default_ranged_hashELb1EE12_M_hash_codeERS8_
	movq	%rax, -32(%rbp)
	.loc 6 708 47
	movq	-32(%rbp), %rdx
	movq	-112(%rbp), %rcx
	movq	-24(%rbp), %rax
	movq	%rcx, %rsi
	movq	%rax, %rdi
	call	_ZNKSt10_HashtableINSt7__cxx1112basic_stringIcSt11char_traitsIcESaIcEEESt4pairIKS5_iESaIS8_ENSt8__detail10_Select1stESt8equal_toIS5_ESt4hashIS5_ENSA_18_Mod_range_hashingENSA_20_Default_ranged_hashENSA_20_Prime_rehash_policyENSA_17_Hashtable_traitsILb1ELb0ELb1EEEE15_M_bucket_indexERS7_m
	movq	%rax, -40(%rbp)
.LBB108:
	.loc 6 709 50
	movq	-32(%rbp), %rcx
	movq	-112(%rbp), %rdx
	movq	-40(%rbp), %rsi
	movq	-24(%rbp), %rax
	movq	%rax, %rdi
	call	_ZNKSt10_HashtableINSt7__cxx1112basic_stringIcSt11char_traitsIcESaIcEEESt4pairIKS5_iESaIS8_ENSt8__detail10_Select1stESt8equal_toIS5_ESt4hashIS5_ENSA_18_Mod_range_hashingENSA_20_Default_ranged_hashENSA_20_Prime_rehash_policyENSA_17_Hashtable_traitsILb1ELb0ELb1EEEE12_M_find_nodeEmRS7_m
	movq	%rax, -48(%rbp)
	.loc 6 709 7
	cmpq	$0, -48(%rbp)
	je	.L374
	.loc 6 710 21
	movq	-48(%rbp), %rax
	movq	%rax, %rdi
	call	_ZNSt8__detail21_Hash_node_value_baseISt4pairIKNSt7__cxx1112basic_stringIcSt11char_traitsIcESaIcEEEiEE4_M_vEv
	.loc 6 710 24
	leaq	32(%rax), %rbx
	jmp	.L376
.L374:
.LBE108:
	.loc 6 715 7
	movq	-112(%rbp), %rdx
	leaq	-64(%rbp), %rax
	movq	%rdx, %rsi
	movq	%rax, %rdi
	call	_ZNSt5tupleIJRKNSt7__cxx1112basic_stringIcSt11char_traitsIcESaIcEEEEEC1ILb1ELb1EEES7_
	.loc 6 712 42
	leaq	-49(%rbp), %rcx
	leaq	-64(%rbp), %rdx
	movq	-24(%rbp), %rsi
	leaq	-80(%rbp), %rax
	movq	%rcx, %r8
	movq	%rdx, %rcx
	leaq	_ZSt19piecewise_construct(%rip), %rdx
	movq	%rax, %rdi
	call	_ZNSt10_HashtableINSt7__cxx1112basic_stringIcSt11char_traitsIcESaIcEEESt4pairIKS5_iESaIS8_ENSt8__detail10_Select1stESt8equal_toIS5_ESt4hashIS5_ENSA_18_Mod_range_hashingENSA_20_Default_ranged_hashENSA_20_Prime_rehash_policyENSA_17_Hashtable_traitsILb1ELb0ELb1EEEE12_Scoped_nodeC1IJRKSt21piecewise_construct_tSt5tupleIJRS7_EESR_IJEEEEEPNSA_16_Hashtable_allocISaINSA_10_Hash_nodeIS8_Lb1EEEEEEDpOT_
.LEHE59:
	.loc 6 719 30
	movq	-72(%rbp), %rdi
	movq	-32(%rbp), %rcx
	movq	-40(%rbp), %rdx
	movq	-112(%rbp), %rsi
	movq	-24(%rbp), %rax
	movl	$1, %r9d
	movq	%rdi, %r8
	movq	%rax, %rdi
.LEHB60:
	call	_ZNSt10_HashtableINSt7__cxx1112basic_stringIcSt11char_traitsIcESaIcEEESt4pairIKS5_iESaIS8_ENSt8__detail10_Select1stESt8equal_toIS5_ESt4hashIS5_ENSA_18_Mod_range_hashingENSA_20_Default_ranged_hashENSA_20_Prime_rehash_policyENSA_17_Hashtable_traitsILb1ELb0ELb1EEEE21_M_insert_unique_nodeERS7_mmPNSA_10_Hash_nodeIS8_Lb1EEEm
.LEHE60:
	movq	%rax, -88(%rbp)
	.loc 6 720 22
	movq	$0, -72(%rbp)
	.loc 6 721 14
	leaq	-88(%rbp), %rax
	movq	%rax, %rdi
	call	_ZNKSt8__detail14_Node_iteratorISt4pairIKNSt7__cxx1112basic_stringIcSt11char_traitsIcESaIcEEEiELb0ELb1EEptEv
	.loc 6 721 21
	leaq	32(%rax), %rbx
	.loc 6 712 42
	leaq	-80(%rbp), %rax
	movq	%rax, %rdi
	call	_ZNSt10_HashtableINSt7__cxx1112basic_stringIcSt11char_traitsIcESaIcEEESt4pairIKS5_iESaIS8_ENSt8__detail10_Select1stESt8equal_toIS5_ESt4hashIS5_ENSA_18_Mod_range_hashingENSA_20_Default_ranged_hashENSA_20_Prime_rehash_policyENSA_17_Hashtable_traitsILb1ELb0ELb1EEEE12_Scoped_nodeD1Ev
.L376:
	.loc 6 722 5 discriminator 1
	movq	%rbx, %rax
	jmp	.L379
.L378:
	.loc 6 712 42
	movq	%rax, %rbx
	leaq	-80(%rbp), %rax
	movq	%rax, %rdi
	call	_ZNSt10_HashtableINSt7__cxx1112basic_stringIcSt11char_traitsIcESaIcEEESt4pairIKS5_iESaIS8_ENSt8__detail10_Select1stESt8equal_toIS5_ESt4hashIS5_ENSA_18_Mod_range_hashingENSA_20_Default_ranged_hashENSA_20_Prime_rehash_policyENSA_17_Hashtable_traitsILb1ELb0ELb1EEEE12_Scoped_nodeD1Ev
	movq	%rbx, %rax
	movq	%rax, %rdi
.LEHB61:
	call	_Unwind_Resume@PLT
.LEHE61:
.L379:
	.loc 6 722 5
	movq	-8(%rbp), %rbx
	leave
	.cfi_def_cfa 7, 8
	ret
	.cfi_endproc
.LFE4735:
	.section	.gcc_except_table
.LLSDA4735:
	.byte	0xff
	.byte	0xff
	.byte	0x1
	.uleb128 .LLSDACSE4735-.LLSDACSB4735
.LLSDACSB4735:
	.uleb128 .LEHB59-.LFB4735
	.uleb128 .LEHE59-.LEHB59
	.uleb128 0
	.uleb128 0
	.uleb128 .LEHB60-.LFB4735
	.uleb128 .LEHE60-.LEHB60
	.uleb128 .L378-.LFB4735
	.uleb128 0
	.uleb128 .LEHB61-.LFB4735
	.uleb128 .LEHE61-.LEHB61
	.uleb128 0
	.uleb128 0
.LLSDACSE4735:
	.section	.text._ZNSt8__detail9_Map_baseINSt7__cxx1112basic_stringIcSt11char_traitsIcESaIcEEESt4pairIKS6_iESaIS9_ENS_10_Select1stESt8equal_toIS6_ESt4hashIS6_ENS_18_Mod_range_hashingENS_20_Default_ranged_hashENS_20_Prime_rehash_policyENS_17_Hashtable_traitsILb1ELb0ELb1EEELb1EEixERS8_,"axG",@progbits,_ZNSt8__detail9_Map_baseINSt7__cxx1112basic_stringIcSt11char_traitsIcESaIcEEESt4pairIKS6_iESaIS9_ENS_10_Select1stESt8equal_toIS6_ESt4hashIS6_ENS_18_Mod_range_hashingENS_20_Default_ranged_hashENS_20_Prime_rehash_policyENS_17_Hashtable_traitsILb1ELb0ELb1EEELb1EEixERS8_,comdat
	.size	_ZNSt8__detail9_Map_baseINSt7__cxx1112basic_stringIcSt11char_traitsIcESaIcEEESt4pairIKS6_iESaIS9_ENS_10_Select1stESt8equal_toIS6_ESt4hashIS6_ENS_18_Mod_range_hashingENS_20_Default_ranged_hashENS_20_Prime_rehash_policyENS_17_Hashtable_traitsILb1ELb0ELb1EEELb1EEixERS8_, .-_ZNSt8__detail9_Map_baseINSt7__cxx1112basic_stringIcSt11char_traitsIcESaIcEEESt4pairIKS6_iESaIS9_ENS_10_Select1stESt8equal_toIS6_ESt4hashIS6_ENS_18_Mod_range_hashingENS_20_Default_ranged_hashENS_20_Prime_rehash_policyENS_17_Hashtable_traitsILb1ELb0ELb1EEELb1EEixERS8_
	.section	.rodata
	.align 8
.LC28:
	.string	"%s: __pos (which is %zu) > this->size() (which is %zu)"
	.section	.text._ZNKSt7__cxx1112basic_stringIcSt11char_traitsIcESaIcEE8_M_checkEmPKc,"axG",@progbits,_ZNKSt7__cxx1112basic_stringIcSt11char_traitsIcESaIcEE8_M_checkEmPKc,comdat
	.align 2
	.weak	_ZNKSt7__cxx1112basic_stringIcSt11char_traitsIcESaIcEE8_M_checkEmPKc
	.type	_ZNKSt7__cxx1112basic_stringIcSt11char_traitsIcESaIcEE8_M_checkEmPKc, @function
_ZNKSt7__cxx1112basic_stringIcSt11char_traitsIcESaIcEE8_M_checkEmPKc:
.LFB4742:
	.loc 5 310 7
	.cfi_startproc
	pushq	%rbp
	.cfi_def_cfa_offset 16
	.cfi_offset 6, -16
	movq	%rsp, %rbp
	.cfi_def_cfa_register 6
	subq	$32, %rsp
	movq	%rdi, -8(%rbp)
	movq	%rsi, -16(%rbp)
	movq	%rdx, -24(%rbp)
	.loc 5 312 24
	movq	-8(%rbp), %rax
	movq	%rax, %rdi
	call	_ZNKSt7__cxx1112basic_stringIcSt11char_traitsIcESaIcEE4sizeEv
	.loc 5 312 12
	cmpq	%rax, -16(%rbp)
	seta	%al
	.loc 5 312 2
	testb	%al, %al
	je	.L381
	.loc 5 313 28
	movq	-8(%rbp), %rax
	movq	%rax, %rdi
	call	_ZNKSt7__cxx1112basic_stringIcSt11char_traitsIcESaIcEE4sizeEv
	movq	%rax, %rcx
	movq	-16(%rbp), %rdx
	movq	-24(%rbp), %rax
	movq	%rax, %rsi
	leaq	.LC28(%rip), %rdi
	movl	$0, %eax
	call	_ZSt24__throw_out_of_range_fmtPKcz@PLT
.L381:
	.loc 5 316 9
	movq	-16(%rbp), %rax
	.loc 5 317 7
	leave
	.cfi_def_cfa 7, 8
	ret
	.cfi_endproc
.LFE4742:
	.size	_ZNKSt7__cxx1112basic_stringIcSt11char_traitsIcESaIcEE8_M_checkEmPKc, .-_ZNKSt7__cxx1112basic_stringIcSt11char_traitsIcESaIcEE8_M_checkEmPKc
	.section	.rodata
.LC29:
	.string	"basic_string::basic_string"
	.section	.text._ZNSt7__cxx1112basic_stringIcSt11char_traitsIcESaIcEEC2ERKS4_mm,"axG",@progbits,_ZNSt7__cxx1112basic_stringIcSt11char_traitsIcESaIcEEC5ERKS4_mm,comdat
	.align 2
	.weak	_ZNSt7__cxx1112basic_stringIcSt11char_traitsIcESaIcEEC2ERKS4_mm
	.type	_ZNSt7__cxx1112basic_stringIcSt11char_traitsIcESaIcEEC2ERKS4_mm, @function
_ZNSt7__cxx1112basic_stringIcSt11char_traitsIcESaIcEEC2ERKS4_mm:
.LFB4744:
	.loc 5 476 7
	.cfi_startproc
	.cfi_personality 0x9b,DW.ref.__gxx_personality_v0
	.cfi_lsda 0x1b,.LLSDA4744
	pushq	%rbp
	.cfi_def_cfa_offset 16
	.cfi_offset 6, -16
	movq	%rsp, %rbp
	.cfi_def_cfa_register 6
	pushq	%rbx
	subq	$56, %rsp
	.cfi_offset 3, -24
	movq	%rdi, -40(%rbp)
	movq	%rsi, -48(%rbp)
	movq	%rdx, -56(%rbp)
	movq	%rcx, -64(%rbp)
.LBB109:
	.loc 5 478 36
	movq	-40(%rbp), %rbx
	leaq	-25(%rbp), %rax
	movq	%rax, %rdi
	call	_ZNSaIcEC1Ev@PLT
	movq	-40(%rbp), %rax
	movq	%rax, %rdi
	call	_ZNSt7__cxx1112basic_stringIcSt11char_traitsIcESaIcEE13_M_local_dataEv
	movq	%rax, %rcx
	leaq	-25(%rbp), %rax
	movq	%rax, %rdx
	movq	%rcx, %rsi
	movq	%rbx, %rdi
	call	_ZNSt7__cxx1112basic_stringIcSt11char_traitsIcESaIcEE12_Alloc_hiderC1EPcOS3_
	.loc 5 159 45
	leaq	-25(%rbp), %rax
	movq	%rax, %rdi
	call	_ZNSaIcED1Ev@PLT
.LBB110:
	.loc 5 480 39
	movq	-48(%rbp), %rax
	movq	%rax, %rdi
	call	_ZNKSt7__cxx1112basic_stringIcSt11char_traitsIcESaIcEE7_M_dataEv
	movq	%rax, %rbx
	.loc 5 481 20
	movq	-56(%rbp), %rcx
	movq	-48(%rbp), %rax
	leaq	.LC29(%rip), %rdx
	movq	%rcx, %rsi
	movq	%rax, %rdi
.LEHB62:
	call	_ZNKSt7__cxx1112basic_stringIcSt11char_traitsIcESaIcEE8_M_checkEmPKc
	.loc 5 480 16
	addq	%rbx, %rax
	movq	%rax, -24(%rbp)
	.loc 5 482 48
	movq	-64(%rbp), %rdx
	movq	-56(%rbp), %rcx
	movq	-48(%rbp), %rax
	movq	%rcx, %rsi
	movq	%rax, %rdi
	call	_ZNKSt7__cxx1112basic_stringIcSt11char_traitsIcESaIcEE8_M_limitEmm
	.loc 5 482 14
	movq	-24(%rbp), %rdx
	addq	%rax, %rdx
	movq	-24(%rbp), %rcx
	movq	-40(%rbp), %rax
	movq	%rcx, %rsi
	movq	%rax, %rdi
	call	_ZNSt7__cxx1112basic_stringIcSt11char_traitsIcESaIcEE12_M_constructIPKcEEvT_S8_
.LEHE62:
.LBE110:
.LBE109:
	.loc 5 483 7
	jmp	.L386
.L385:
.LBB111:
	.loc 5 478 36
	movq	%rax, %rbx
	movq	-40(%rbp), %rax
	movq	%rax, %rdi
	call	_ZNSt7__cxx1112basic_stringIcSt11char_traitsIcESaIcEE12_Alloc_hiderD1Ev
	movq	%rbx, %rax
	movq	%rax, %rdi
.LEHB63:
	call	_Unwind_Resume@PLT
.LEHE63:
.L386:
.LBE111:
	.loc 5 483 7
	movq	-8(%rbp), %rbx
	leave
	.cfi_def_cfa 7, 8
	ret
	.cfi_endproc
.LFE4744:
	.section	.gcc_except_table
.LLSDA4744:
	.byte	0xff
	.byte	0xff
	.byte	0x1
	.uleb128 .LLSDACSE4744-.LLSDACSB4744
.LLSDACSB4744:
	.uleb128 .LEHB62-.LFB4744
	.uleb128 .LEHE62-.LEHB62
	.uleb128 .L385-.LFB4744
	.uleb128 0
	.uleb128 .LEHB63-.LFB4744
	.uleb128 .LEHE63-.LEHB63
	.uleb128 0
	.uleb128 0
.LLSDACSE4744:
	.section	.text._ZNSt7__cxx1112basic_stringIcSt11char_traitsIcESaIcEEC2ERKS4_mm,"axG",@progbits,_ZNSt7__cxx1112basic_stringIcSt11char_traitsIcESaIcEEC5ERKS4_mm,comdat
	.size	_ZNSt7__cxx1112basic_stringIcSt11char_traitsIcESaIcEEC2ERKS4_mm, .-_ZNSt7__cxx1112basic_stringIcSt11char_traitsIcESaIcEEC2ERKS4_mm
	.weak	_ZNSt7__cxx1112basic_stringIcSt11char_traitsIcESaIcEEC1ERKS4_mm
	.set	_ZNSt7__cxx1112basic_stringIcSt11char_traitsIcESaIcEEC1ERKS4_mm,_ZNSt7__cxx1112basic_stringIcSt11char_traitsIcESaIcEEC2ERKS4_mm
	.section	.text._ZNSt8__detail9_Map_baseIiSt4pairIKi16participant_infoESaIS4_ENS_10_Select1stESt8equal_toIiESt4hashIiENS_18_Mod_range_hashingENS_20_Default_ranged_hashENS_20_Prime_rehash_policyENS_17_Hashtable_traitsILb0ELb0ELb1EEELb1EEixERS2_,"axG",@progbits,_ZNSt8__detail9_Map_baseIiSt4pairIKi16participant_infoESaIS4_ENS_10_Select1stESt8equal_toIiESt4hashIiENS_18_Mod_range_hashingENS_20_Default_ranged_hashENS_20_Prime_rehash_policyENS_17_Hashtable_traitsILb0ELb0ELb1EEELb1EEixERS2_,comdat
	.align 2
	.weak	_ZNSt8__detail9_Map_baseIiSt4pairIKi16participant_infoESaIS4_ENS_10_Select1stESt8equal_toIiESt4hashIiENS_18_Mod_range_hashingENS_20_Default_ranged_hashENS_20_Prime_rehash_policyENS_17_Hashtable_traitsILb0ELb0ELb1EEELb1EEixERS2_
	.type	_ZNSt8__detail9_Map_baseIiSt4pairIKi16participant_infoESaIS4_ENS_10_Select1stESt8equal_toIiESt4hashIiENS_18_Mod_range_hashingENS_20_Default_ranged_hashENS_20_Prime_rehash_policyENS_17_Hashtable_traitsILb0ELb0ELb1EEELb1EEixERS2_, @function
_ZNSt8__detail9_Map_baseIiSt4pairIKi16participant_infoESaIS4_ENS_10_Select1stESt8equal_toIiESt4hashIiENS_18_Mod_range_hashingENS_20_Default_ranged_hashENS_20_Prime_rehash_policyENS_17_Hashtable_traitsILb0ELb0ELb1EEELb1EEixERS2_:
.LFB4746:
	.loc 6 701 5
	.cfi_startproc
	.cfi_personality 0x9b,DW.ref.__gxx_personality_v0
	.cfi_lsda 0x1b,.LLSDA4746
	pushq	%rbp
	.cfi_def_cfa_offset 16
	.cfi_offset 6, -16
	movq	%rsp, %rbp
	.cfi_def_cfa_register 6
	pushq	%rbx
	subq	$104, %rsp
	.cfi_offset 3, -24
	movq	%rdi, -104(%rbp)
	movq	%rsi, -112(%rbp)
	.loc 6 706 20
	movq	-104(%rbp), %rax
	movq	%rax, -24(%rbp)
	.loc 6 707 45
	movq	-112(%rbp), %rdx
	movq	-24(%rbp), %rax
	movq	%rdx, %rsi
	movq	%rax, %rdi
.LEHB64:
	call	_ZNKSt8__detail15_Hash_code_baseIiSt4pairIKi16participant_infoENS_10_Select1stESt4hashIiENS_18_Mod_range_hashingENS_20_Default_ranged_hashELb0EE12_M_hash_codeERS2_
	movq	%rax, -32(%rbp)
	.loc 6 708 47
	movq	-32(%rbp), %rdx
	movq	-112(%rbp), %rcx
	movq	-24(%rbp), %rax
	movq	%rcx, %rsi
	movq	%rax, %rdi
	call	_ZNKSt10_HashtableIiSt4pairIKi16participant_infoESaIS3_ENSt8__detail10_Select1stESt8equal_toIiESt4hashIiENS5_18_Mod_range_hashingENS5_20_Default_ranged_hashENS5_20_Prime_rehash_policyENS5_17_Hashtable_traitsILb0ELb0ELb1EEEE15_M_bucket_indexERS1_m
	movq	%rax, -40(%rbp)
.LBB112:
	.loc 6 709 50
	movq	-32(%rbp), %rcx
	movq	-112(%rbp), %rdx
	movq	-40(%rbp), %rsi
	movq	-24(%rbp), %rax
	movq	%rax, %rdi
	call	_ZNKSt10_HashtableIiSt4pairIKi16participant_infoESaIS3_ENSt8__detail10_Select1stESt8equal_toIiESt4hashIiENS5_18_Mod_range_hashingENS5_20_Default_ranged_hashENS5_20_Prime_rehash_policyENS5_17_Hashtable_traitsILb0ELb0ELb1EEEE12_M_find_nodeEmRS1_m
	movq	%rax, -48(%rbp)
	.loc 6 709 7
	cmpq	$0, -48(%rbp)
	je	.L388
	.loc 6 710 21
	movq	-48(%rbp), %rax
	movq	%rax, %rdi
	call	_ZNSt8__detail21_Hash_node_value_baseISt4pairIKi16participant_infoEE4_M_vEv
	.loc 6 710 24
	leaq	8(%rax), %rbx
	jmp	.L390
.L388:
.LBE112:
	.loc 6 715 7
	movq	-112(%rbp), %rdx
	leaq	-64(%rbp), %rax
	movq	%rdx, %rsi
	movq	%rax, %rdi
	call	_ZNSt5tupleIJRKiEEC1ILb1ELb1EEES1_
	.loc 6 712 42
	leaq	-49(%rbp), %rcx
	leaq	-64(%rbp), %rdx
	movq	-24(%rbp), %rsi
	leaq	-80(%rbp), %rax
	movq	%rcx, %r8
	movq	%rdx, %rcx
	leaq	_ZSt19piecewise_construct(%rip), %rdx
	movq	%rax, %rdi
	call	_ZNSt10_HashtableIiSt4pairIKi16participant_infoESaIS3_ENSt8__detail10_Select1stESt8equal_toIiESt4hashIiENS5_18_Mod_range_hashingENS5_20_Default_ranged_hashENS5_20_Prime_rehash_policyENS5_17_Hashtable_traitsILb0ELb0ELb1EEEE12_Scoped_nodeC1IJRKSt21piecewise_construct_tSt5tupleIJRS1_EESM_IJEEEEEPNS5_16_Hashtable_allocISaINS5_10_Hash_nodeIS3_Lb0EEEEEEDpOT_
.LEHE64:
	.loc 6 719 30
	movq	-72(%rbp), %rdi
	movq	-32(%rbp), %rcx
	movq	-40(%rbp), %rdx
	movq	-112(%rbp), %rsi
	movq	-24(%rbp), %rax
	movl	$1, %r9d
	movq	%rdi, %r8
	movq	%rax, %rdi
.LEHB65:
	call	_ZNSt10_HashtableIiSt4pairIKi16participant_infoESaIS3_ENSt8__detail10_Select1stESt8equal_toIiESt4hashIiENS5_18_Mod_range_hashingENS5_20_Default_ranged_hashENS5_20_Prime_rehash_policyENS5_17_Hashtable_traitsILb0ELb0ELb1EEEE21_M_insert_unique_nodeERS1_mmPNS5_10_Hash_nodeIS3_Lb0EEEm
.LEHE65:
	movq	%rax, -88(%rbp)
	.loc 6 720 22
	movq	$0, -72(%rbp)
	.loc 6 721 14
	leaq	-88(%rbp), %rax
	movq	%rax, %rdi
	call	_ZNKSt8__detail14_Node_iteratorISt4pairIKi16participant_infoELb0ELb0EEptEv
	.loc 6 721 21
	leaq	8(%rax), %rbx
	.loc 6 712 42
	leaq	-80(%rbp), %rax
	movq	%rax, %rdi
	call	_ZNSt10_HashtableIiSt4pairIKi16participant_infoESaIS3_ENSt8__detail10_Select1stESt8equal_toIiESt4hashIiENS5_18_Mod_range_hashingENS5_20_Default_ranged_hashENS5_20_Prime_rehash_policyENS5_17_Hashtable_traitsILb0ELb0ELb1EEEE12_Scoped_nodeD1Ev
.L390:
	.loc 6 722 5 discriminator 1
	movq	%rbx, %rax
	jmp	.L393
.L392:
	.loc 6 712 42
	movq	%rax, %rbx
	leaq	-80(%rbp), %rax
	movq	%rax, %rdi
	call	_ZNSt10_HashtableIiSt4pairIKi16participant_infoESaIS3_ENSt8__detail10_Select1stESt8equal_toIiESt4hashIiENS5_18_Mod_range_hashingENS5_20_Default_ranged_hashENS5_20_Prime_rehash_policyENS5_17_Hashtable_traitsILb0ELb0ELb1EEEE12_Scoped_nodeD1Ev
	movq	%rbx, %rax
	movq	%rax, %rdi
.LEHB66:
	call	_Unwind_Resume@PLT
.LEHE66:
.L393:
	.loc 6 722 5
	movq	-8(%rbp), %rbx
	leave
	.cfi_def_cfa 7, 8
	ret
	.cfi_endproc
.LFE4746:
	.section	.gcc_except_table
.LLSDA4746:
	.byte	0xff
	.byte	0xff
	.byte	0x1
	.uleb128 .LLSDACSE4746-.LLSDACSB4746
.LLSDACSB4746:
	.uleb128 .LEHB64-.LFB4746
	.uleb128 .LEHE64-.LEHB64
	.uleb128 0
	.uleb128 0
	.uleb128 .LEHB65-.LFB4746
	.uleb128 .LEHE65-.LEHB65
	.uleb128 .L392-.LFB4746
	.uleb128 0
	.uleb128 .LEHB66-.LFB4746
	.uleb128 .LEHE66-.LEHB66
	.uleb128 0
	.uleb128 0
.LLSDACSE4746:
	.section	.text._ZNSt8__detail9_Map_baseIiSt4pairIKi16participant_infoESaIS4_ENS_10_Select1stESt8equal_toIiESt4hashIiENS_18_Mod_range_hashingENS_20_Default_ranged_hashENS_20_Prime_rehash_policyENS_17_Hashtable_traitsILb0ELb0ELb1EEELb1EEixERS2_,"axG",@progbits,_ZNSt8__detail9_Map_baseIiSt4pairIKi16participant_infoESaIS4_ENS_10_Select1stESt8equal_toIiESt4hashIiENS_18_Mod_range_hashingENS_20_Default_ranged_hashENS_20_Prime_rehash_policyENS_17_Hashtable_traitsILb0ELb0ELb1EEELb1EEixERS2_,comdat
	.size	_ZNSt8__detail9_Map_baseIiSt4pairIKi16participant_infoESaIS4_ENS_10_Select1stESt8equal_toIiESt4hashIiENS_18_Mod_range_hashingENS_20_Default_ranged_hashENS_20_Prime_rehash_policyENS_17_Hashtable_traitsILb0ELb0ELb1EEELb1EEixERS2_, .-_ZNSt8__detail9_Map_baseIiSt4pairIKi16participant_infoESaIS4_ENS_10_Select1stESt8equal_toIiESt4hashIiENS_18_Mod_range_hashingENS_20_Default_ranged_hashENS_20_Prime_rehash_policyENS_17_Hashtable_traitsILb0ELb0ELb1EEELb1EEixERS2_
	.section	.text._ZNSt10_HashtableIiSt4pairIKi16participant_infoESaIS3_ENSt8__detail10_Select1stESt8equal_toIiESt4hashIiENS5_18_Mod_range_hashingENS5_20_Default_ranged_hashENS5_20_Prime_rehash_policyENS5_17_Hashtable_traitsILb0ELb0ELb1EEEE5eraseERS1_,"axG",@progbits,_ZNSt10_HashtableIiSt4pairIKi16participant_infoESaIS3_ENSt8__detail10_Select1stESt8equal_toIiESt4hashIiENS5_18_Mod_range_hashingENS5_20_Default_ranged_hashENS5_20_Prime_rehash_policyENS5_17_Hashtable_traitsILb0ELb0ELb1EEEE5eraseERS1_,comdat
	.align 2
	.weak	_ZNSt10_HashtableIiSt4pairIKi16participant_infoESaIS3_ENSt8__detail10_Select1stESt8equal_toIiESt4hashIiENS5_18_Mod_range_hashingENS5_20_Default_ranged_hashENS5_20_Prime_rehash_policyENS5_17_Hashtable_traitsILb0ELb0ELb1EEEE5eraseERS1_
	.type	_ZNSt10_HashtableIiSt4pairIKi16participant_infoESaIS3_ENSt8__detail10_Select1stESt8equal_toIiESt4hashIiENS5_18_Mod_range_hashingENS5_20_Default_ranged_hashENS5_20_Prime_rehash_policyENS5_17_Hashtable_traitsILb0ELb0ELb1EEEE5eraseERS1_, @function
_ZNSt10_HashtableIiSt4pairIKi16participant_infoESaIS3_ENSt8__detail10_Select1stESt8equal_toIiESt4hashIiENS5_18_Mod_range_hashingENS5_20_Default_ranged_hashENS5_20_Prime_rehash_policyENS5_17_Hashtable_traitsILb0ELb0ELb1EEEE5eraseERS1_:
.LFB4753:
	.loc 11 810 7
	.cfi_startproc
	pushq	%rbp
	.cfi_def_cfa_offset 16
	.cfi_offset 6, -16
	movq	%rsp, %rbp
	.cfi_def_cfa_register 6
	subq	$16, %rsp
	movq	%rdi, -8(%rbp)
	movq	%rsi, -16(%rbp)
	.loc 11 811 24
	movq	-16(%rbp), %rdx
	movq	-8(%rbp), %rax
	movq	%rdx, %rsi
	movq	%rax, %rdi
	call	_ZNSt10_HashtableIiSt4pairIKi16participant_infoESaIS3_ENSt8__detail10_Select1stESt8equal_toIiESt4hashIiENS5_18_Mod_range_hashingENS5_20_Default_ranged_hashENS5_20_Prime_rehash_policyENS5_17_Hashtable_traitsILb0ELb0ELb1EEEE8_M_eraseESt17integral_constantIbLb1EERS1_
	.loc 11 811 48
	leave
	.cfi_def_cfa 7, 8
	ret
	.cfi_endproc
.LFE4753:
	.size	_ZNSt10_HashtableIiSt4pairIKi16participant_infoESaIS3_ENSt8__detail10_Select1stESt8equal_toIiESt4hashIiENS5_18_Mod_range_hashingENS5_20_Default_ranged_hashENS5_20_Prime_rehash_policyENS5_17_Hashtable_traitsILb0ELb0ELb1EEEE5eraseERS1_, .-_ZNSt10_HashtableIiSt4pairIKi16participant_infoESaIS3_ENSt8__detail10_Select1stESt8equal_toIiESt4hashIiENS5_18_Mod_range_hashingENS5_20_Default_ranged_hashENS5_20_Prime_rehash_policyENS5_17_Hashtable_traitsILb0ELb0ELb1EEEE5eraseERS1_
	.section	.text._ZNSt10_HashtableIiSt4pairIKi16participant_infoESaIS3_ENSt8__detail10_Select1stESt8equal_toIiESt4hashIiENS5_18_Mod_range_hashingENS5_20_Default_ranged_hashENS5_20_Prime_rehash_policyENS5_17_Hashtable_traitsILb0ELb0ELb1EEEE5beginEv,"axG",@progbits,_ZNSt10_HashtableIiSt4pairIKi16participant_infoESaIS3_ENSt8__detail10_Select1stESt8equal_toIiESt4hashIiENS5_18_Mod_range_hashingENS5_20_Default_ranged_hashENS5_20_Prime_rehash_policyENS5_17_Hashtable_traitsILb0ELb0ELb1EEEE5beginEv,comdat
	.align 2
	.weak	_ZNSt10_HashtableIiSt4pairIKi16participant_infoESaIS3_ENSt8__detail10_Select1stESt8equal_toIiESt4hashIiENS5_18_Mod_range_hashingENS5_20_Default_ranged_hashENS5_20_Prime_rehash_policyENS5_17_Hashtable_traitsILb0ELb0ELb1EEEE5beginEv
	.type	_ZNSt10_HashtableIiSt4pairIKi16participant_infoESaIS3_ENSt8__detail10_Select1stESt8equal_toIiESt4hashIiENS5_18_Mod_range_hashingENS5_20_Default_ranged_hashENS5_20_Prime_rehash_policyENS5_17_Hashtable_traitsILb0ELb0ELb1EEEE5beginEv, @function
_ZNSt10_HashtableIiSt4pairIKi16participant_infoESaIS3_ENSt8__detail10_Select1stESt8equal_toIiESt4hashIiENS5_18_Mod_range_hashingENS5_20_Default_ranged_hashENS5_20_Prime_rehash_policyENS5_17_Hashtable_traitsILb0ELb0ELb1EEEE5beginEv:
.LFB4754:
	.loc 11 542 7
	.cfi_startproc
	pushq	%rbp
	.cfi_def_cfa_offset 16
	.cfi_offset 6, -16
	movq	%rsp, %rbp
	.cfi_def_cfa_register 6
	subq	$32, %rsp
	movq	%rdi, -24(%rbp)
	.loc 11 543 16
	movq	-24(%rbp), %rax
	movq	%rax, %rdi
	call	_ZNKSt10_HashtableIiSt4pairIKi16participant_infoESaIS3_ENSt8__detail10_Select1stESt8equal_toIiESt4hashIiENS5_18_Mod_range_hashingENS5_20_Default_ranged_hashENS5_20_Prime_rehash_policyENS5_17_Hashtable_traitsILb0ELb0ELb1EEEE8_M_beginEv
	movq	%rax, %rdx
	leaq	-8(%rbp), %rax
	movq	%rdx, %rsi
	movq	%rax, %rdi
	call	_ZNSt8__detail14_Node_iteratorISt4pairIKi16participant_infoELb0ELb0EEC1EPNS_10_Hash_nodeIS4_Lb0EEE
	.loc 11 543 35
	movq	-8(%rbp), %rax
	.loc 11 543 38
	leave
	.cfi_def_cfa 7, 8
	ret
	.cfi_endproc
.LFE4754:
	.size	_ZNSt10_HashtableIiSt4pairIKi16participant_infoESaIS3_ENSt8__detail10_Select1stESt8equal_toIiESt4hashIiENS5_18_Mod_range_hashingENS5_20_Default_ranged_hashENS5_20_Prime_rehash_policyENS5_17_Hashtable_traitsILb0ELb0ELb1EEEE5beginEv, .-_ZNSt10_HashtableIiSt4pairIKi16participant_infoESaIS3_ENSt8__detail10_Select1stESt8equal_toIiESt4hashIiENS5_18_Mod_range_hashingENS5_20_Default_ranged_hashENS5_20_Prime_rehash_policyENS5_17_Hashtable_traitsILb0ELb0ELb1EEEE5beginEv
	.section	.text._ZNSt10_HashtableIiSt4pairIKi16participant_infoESaIS3_ENSt8__detail10_Select1stESt8equal_toIiESt4hashIiENS5_18_Mod_range_hashingENS5_20_Default_ranged_hashENS5_20_Prime_rehash_policyENS5_17_Hashtable_traitsILb0ELb0ELb1EEEE3endEv,"axG",@progbits,_ZNSt10_HashtableIiSt4pairIKi16participant_infoESaIS3_ENSt8__detail10_Select1stESt8equal_toIiESt4hashIiENS5_18_Mod_range_hashingENS5_20_Default_ranged_hashENS5_20_Prime_rehash_policyENS5_17_Hashtable_traitsILb0ELb0ELb1EEEE3endEv,comdat
	.align 2
	.weak	_ZNSt10_HashtableIiSt4pairIKi16participant_infoESaIS3_ENSt8__detail10_Select1stESt8equal_toIiESt4hashIiENS5_18_Mod_range_hashingENS5_20_Default_ranged_hashENS5_20_Prime_rehash_policyENS5_17_Hashtable_traitsILb0ELb0ELb1EEEE3endEv
	.type	_ZNSt10_HashtableIiSt4pairIKi16participant_infoESaIS3_ENSt8__detail10_Select1stESt8equal_toIiESt4hashIiENS5_18_Mod_range_hashingENS5_20_Default_ranged_hashENS5_20_Prime_rehash_policyENS5_17_Hashtable_traitsILb0ELb0ELb1EEEE3endEv, @function
_ZNSt10_HashtableIiSt4pairIKi16participant_infoESaIS3_ENSt8__detail10_Select1stESt8equal_toIiESt4hashIiENS5_18_Mod_range_hashingENS5_20_Default_ranged_hashENS5_20_Prime_rehash_policyENS5_17_Hashtable_traitsILb0ELb0ELb1EEEE3endEv:
.LFB4755:
	.loc 11 550 7
	.cfi_startproc
	pushq	%rbp
	.cfi_def_cfa_offset 16
	.cfi_offset 6, -16
	movq	%rsp, %rbp
	.cfi_def_cfa_register 6
	subq	$32, %rsp
	movq	%rdi, -24(%rbp)
	.loc 11 551 16
	leaq	-8(%rbp), %rax
	movl	$0, %esi
	movq	%rax, %rdi
	call	_ZNSt8__detail14_Node_iteratorISt4pairIKi16participant_infoELb0ELb0EEC1EPNS_10_Hash_nodeIS4_Lb0EEE
	.loc 11 551 32
	movq	-8(%rbp), %rax
	.loc 11 551 35
	leave
	.cfi_def_cfa 7, 8
	ret
	.cfi_endproc
.LFE4755:
	.size	_ZNSt10_HashtableIiSt4pairIKi16participant_infoESaIS3_ENSt8__detail10_Select1stESt8equal_toIiESt4hashIiENS5_18_Mod_range_hashingENS5_20_Default_ranged_hashENS5_20_Prime_rehash_policyENS5_17_Hashtable_traitsILb0ELb0ELb1EEEE3endEv, .-_ZNSt10_HashtableIiSt4pairIKi16participant_infoESaIS3_ENSt8__detail10_Select1stESt8equal_toIiESt4hashIiENS5_18_Mod_range_hashingENS5_20_Default_ranged_hashENS5_20_Prime_rehash_policyENS5_17_Hashtable_traitsILb0ELb0ELb1EEEE3endEv
	.section	.text._ZNSt8__detail19_Node_iterator_baseISt4pairIKi16participant_infoELb0EE7_M_incrEv,"axG",@progbits,_ZNSt8__detail19_Node_iterator_baseISt4pairIKi16participant_infoELb0EE7_M_incrEv,comdat
	.align 2
	.weak	_ZNSt8__detail19_Node_iterator_baseISt4pairIKi16participant_infoELb0EE7_M_incrEv
	.type	_ZNSt8__detail19_Node_iterator_baseISt4pairIKi16participant_infoELb0EE7_M_incrEv, @function
_ZNSt8__detail19_Node_iterator_baseISt4pairIKi16participant_infoELb0EE7_M_incrEv:
.LFB4756:
	.loc 6 298 7
	.cfi_startproc
	pushq	%rbp
	.cfi_def_cfa_offset 16
	.cfi_offset 6, -16
	movq	%rsp, %rbp
	.cfi_def_cfa_register 6
	subq	$16, %rsp
	movq	%rdi, -8(%rbp)
	.loc 6 299 18
	movq	-8(%rbp), %rax
	movq	(%rax), %rax
	.loc 6 299 33
	movq	%rax, %rdi
	call	_ZNKSt8__detail10_Hash_nodeISt4pairIKi16participant_infoELb0EE7_M_nextEv
	.loc 6 299 16
	movq	-8(%rbp), %rdx
	movq	%rax, (%rdx)
	.loc 6 299 37
	nop
	leave
	.cfi_def_cfa 7, 8
	ret
	.cfi_endproc
.LFE4756:
	.size	_ZNSt8__detail19_Node_iterator_baseISt4pairIKi16participant_infoELb0EE7_M_incrEv, .-_ZNSt8__detail19_Node_iterator_baseISt4pairIKi16participant_infoELb0EE7_M_incrEv
	.section	.text._ZNSt8__detail21_Hash_node_value_baseISt4pairIKi16participant_infoEE4_M_vEv,"axG",@progbits,_ZNSt8__detail21_Hash_node_value_baseISt4pairIKi16participant_infoEE4_M_vEv,comdat
	.align 2
	.weak	_ZNSt8__detail21_Hash_node_value_baseISt4pairIKi16participant_infoEE4_M_vEv
	.type	_ZNSt8__detail21_Hash_node_value_baseISt4pairIKi16participant_infoEE4_M_vEv, @function
_ZNSt8__detail21_Hash_node_value_baseISt4pairIKi16participant_infoEE4_M_vEv:
.LFB4757:
	.loc 6 244 7
	.cfi_startproc
	pushq	%rbp
	.cfi_def_cfa_offset 16
	.cfi_offset 6, -16
	movq	%rsp, %rbp
	.cfi_def_cfa_register 6
	subq	$16, %rsp
	movq	%rdi, -8(%rbp)
	.loc 6 245 26
	movq	-8(%rbp), %rax
	movq	%rax, %rdi
	call	_ZNSt8__detail21_Hash_node_value_baseISt4pairIKi16participant_infoEE9_M_valptrEv
	.loc 6 245 30
	leave
	.cfi_def_cfa 7, 8
	ret
	.cfi_endproc
.LFE4757:
	.size	_ZNSt8__detail21_Hash_node_value_baseISt4pairIKi16participant_infoEE4_M_vEv, .-_ZNSt8__detail21_Hash_node_value_baseISt4pairIKi16participant_infoEE4_M_vEv
	.section	.text._ZNSt5dequeINSt7__cxx1112basic_stringIcSt11char_traitsIcESaIcEEESaIS5_EE9push_backERKS5_,"axG",@progbits,_ZNSt5dequeINSt7__cxx1112basic_stringIcSt11char_traitsIcESaIcEEESaIS5_EE9push_backERKS5_,comdat
	.align 2
	.weak	_ZNSt5dequeINSt7__cxx1112basic_stringIcSt11char_traitsIcESaIcEEESaIS5_EE9push_backERKS5_
	.type	_ZNSt5dequeINSt7__cxx1112basic_stringIcSt11char_traitsIcESaIcEEESaIS5_EE9push_backERKS5_, @function
_ZNSt5dequeINSt7__cxx1112basic_stringIcSt11char_traitsIcESaIcEEESaIS5_EE9push_backERKS5_:
.LFB4758:
	.loc 8 1493 7
	.cfi_startproc
	pushq	%rbp
	.cfi_def_cfa_offset 16
	.cfi_offset 6, -16
	movq	%rsp, %rbp
	.cfi_def_cfa_register 6
	subq	$16, %rsp
	movq	%rdi, -8(%rbp)
	movq	%rsi, -16(%rbp)
	.loc 8 1495 30
	movq	-8(%rbp), %rax
	movq	48(%rax), %rdx
	.loc 8 1496 33
	movq	-8(%rbp), %rax
	movq	64(%rax), %rax
	.loc 8 1496 41
	subq	$32, %rax
	.loc 8 1495 2
	cmpq	%rax, %rdx
	je	.L404
	.loc 8 1498 30
	movq	-8(%rbp), %rax
	movq	48(%rax), %rcx
	.loc 8 1498 37
	movq	-8(%rbp), %rax
	.loc 8 1498 30
	movq	-16(%rbp), %rdx
	movq	%rcx, %rsi
	movq	%rax, %rdi
	call	_ZNSt16allocator_traitsISaINSt7__cxx1112basic_stringIcSt11char_traitsIcESaIcEEEEE9constructIS5_JRKS5_EEEvRS6_PT_DpOT0_
	.loc 8 1500 32
	movq	-8(%rbp), %rax
	movq	48(%rax), %rax
	.loc 8 1500 6
	leaq	32(%rax), %rdx
	movq	-8(%rbp), %rax
	movq	%rdx, 48(%rax)
	.loc 8 1504 7
	jmp	.L406
.L404:
	.loc 8 1503 20
	movq	-16(%rbp), %rdx
	movq	-8(%rbp), %rax
	movq	%rdx, %rsi
	movq	%rax, %rdi
	call	_ZNSt5dequeINSt7__cxx1112basic_stringIcSt11char_traitsIcESaIcEEESaIS5_EE16_M_push_back_auxIJRKS5_EEEvDpOT_
.L406:
	.loc 8 1504 7
	nop
	leave
	.cfi_def_cfa 7, 8
	ret
	.cfi_endproc
.LFE4758:
	.size	_ZNSt5dequeINSt7__cxx1112basic_stringIcSt11char_traitsIcESaIcEEESaIS5_EE9push_backERKS5_, .-_ZNSt5dequeINSt7__cxx1112basic_stringIcSt11char_traitsIcESaIcEEESaIS5_EE9push_backERKS5_
	.section	.text._ZNKSt5dequeINSt7__cxx1112basic_stringIcSt11char_traitsIcESaIcEEESaIS5_EE4sizeEv,"axG",@progbits,_ZNKSt5dequeINSt7__cxx1112basic_stringIcSt11char_traitsIcESaIcEEESaIS5_EE4sizeEv,comdat
	.align 2
	.weak	_ZNKSt5dequeINSt7__cxx1112basic_stringIcSt11char_traitsIcESaIcEEESaIS5_EE4sizeEv
	.type	_ZNKSt5dequeINSt7__cxx1112basic_stringIcSt11char_traitsIcESaIcEEESaIS5_EE4sizeEv, @function
_ZNKSt5dequeINSt7__cxx1112basic_stringIcSt11char_traitsIcESaIcEEESaIS5_EE4sizeEv:
.LFB4760:
	.loc 8 1230 7
	.cfi_startproc
	pushq	%rbp
	.cfi_def_cfa_offset 16
	.cfi_offset 6, -16
	movq	%rsp, %rbp
	.cfi_def_cfa_register 6
	subq	$16, %rsp
	movq	%rdi, -8(%rbp)
	.loc 8 1231 56
	movq	-8(%rbp), %rax
	leaq	16(%rax), %rdx
	.loc 8 1231 30
	movq	-8(%rbp), %rax
	addq	$48, %rax
	.loc 8 1231 40
	movq	%rdx, %rsi
	movq	%rax, %rdi
	call	_ZStmiRKSt15_Deque_iteratorINSt7__cxx1112basic_stringIcSt11char_traitsIcESaIcEEERS5_PS5_ESA_
	.loc 8 1231 66
	leave
	.cfi_def_cfa 7, 8
	ret
	.cfi_endproc
.LFE4760:
	.size	_ZNKSt5dequeINSt7__cxx1112basic_stringIcSt11char_traitsIcESaIcEEESaIS5_EE4sizeEv, .-_ZNKSt5dequeINSt7__cxx1112basic_stringIcSt11char_traitsIcESaIcEEESaIS5_EE4sizeEv
	.section	.text._ZN9__gnu_cxx14__alloc_traitsISaIcEcE27_S_propagate_on_copy_assignEv,"axG",@progbits,_ZN9__gnu_cxx14__alloc_traitsISaIcEcE27_S_propagate_on_copy_assignEv,comdat
	.weak	_ZN9__gnu_cxx14__alloc_traitsISaIcEcE27_S_propagate_on_copy_assignEv
	.type	_ZN9__gnu_cxx14__alloc_traitsISaIcEcE27_S_propagate_on_copy_assignEv, @function
_ZN9__gnu_cxx14__alloc_traitsISaIcEcE27_S_propagate_on_copy_assignEv:
.LFB4762:
	.file 20 "/usr/include/c++/10/ext/alloc_traits.h"
	.loc 20 103 27
	.cfi_startproc
	pushq	%rbp
	.cfi_def_cfa_offset 16
	.cfi_offset 6, -16
	movq	%rsp, %rbp
	.cfi_def_cfa_register 6
	.loc 20 104 66
	movl	$0, %eax
	.loc 20 104 73
	popq	%rbp
	.cfi_def_cfa 7, 8
	ret
	.cfi_endproc
.LFE4762:
	.size	_ZN9__gnu_cxx14__alloc_traitsISaIcEcE27_S_propagate_on_copy_assignEv, .-_ZN9__gnu_cxx14__alloc_traitsISaIcEcE27_S_propagate_on_copy_assignEv
	.section	.text._ZN9__gnu_cxx14__alloc_traitsISaIcEcE15_S_always_equalEv,"axG",@progbits,_ZN9__gnu_cxx14__alloc_traitsISaIcEcE15_S_always_equalEv,comdat
	.weak	_ZN9__gnu_cxx14__alloc_traitsISaIcEcE15_S_always_equalEv
	.type	_ZN9__gnu_cxx14__alloc_traitsISaIcEcE15_S_always_equalEv, @function
_ZN9__gnu_cxx14__alloc_traitsISaIcEcE15_S_always_equalEv:
.LFB4763:
	.loc 20 112 27
	.cfi_startproc
	pushq	%rbp
	.cfi_def_cfa_offset 16
	.cfi_offset 6, -16
	movq	%rsp, %rbp
	.cfi_def_cfa_register 6
	.loc 20 113 43
	movl	$1, %eax
	.loc 20 113 50
	popq	%rbp
	.cfi_def_cfa 7, 8
	ret
	.cfi_endproc
.LFE4763:
	.size	_ZN9__gnu_cxx14__alloc_traitsISaIcEcE15_S_always_equalEv, .-_ZN9__gnu_cxx14__alloc_traitsISaIcEcE15_S_always_equalEv
	.section	.text._ZSteqRKSaIcES1_,"axG",@progbits,_ZSteqRKSaIcES1_,comdat
	.weak	_ZSteqRKSaIcES1_
	.type	_ZSteqRKSaIcES1_, @function
_ZSteqRKSaIcES1_:
.LFB4764:
	.loc 16 192 7
	.cfi_startproc
	pushq	%rbp
	.cfi_def_cfa_offset 16
	.cfi_offset 6, -16
	movq	%rsp, %rbp
	.cfi_def_cfa_register 6
	movq	%rdi, -8(%rbp)
	movq	%rsi, -16(%rbp)
	.loc 16 193 16
	movl	$1, %eax
	.loc 16 193 22
	popq	%rbp
	.cfi_def_cfa 7, 8
	ret
	.cfi_endproc
.LFE4764:
	.size	_ZSteqRKSaIcES1_, .-_ZSteqRKSaIcES1_
	.section	.text._ZNSt16allocator_traitsISaIcEE8allocateERS0_m,"axG",@progbits,_ZNSt16allocator_traitsISaIcEE8allocateERS0_m,comdat
	.weak	_ZNSt16allocator_traitsISaIcEE8allocateERS0_m
	.type	_ZNSt16allocator_traitsISaIcEE8allocateERS0_m, @function
_ZNSt16allocator_traitsISaIcEE8allocateERS0_m:
.LFB4765:
	.file 21 "/usr/include/c++/10/bits/alloc_traits.h"
	.loc 21 459 7
	.cfi_startproc
	pushq	%rbp
	.cfi_def_cfa_offset 16
	.cfi_offset 6, -16
	movq	%rsp, %rbp
	.cfi_def_cfa_register 6
	subq	$32, %rsp
	movq	%rdi, -24(%rbp)
	movq	%rsi, -32(%rbp)
	movq	-24(%rbp), %rax
	movq	%rax, -8(%rbp)
	movq	-32(%rbp), %rax
	movq	%rax, -16(%rbp)
.LBB113:
.LBB114:
	.loc 16 170 32
	call	_ZSt21is_constant_evaluatedv
	.loc 16 170 2
	testb	%al, %al
	je	.L416
	.loc 16 171 43
	movq	-16(%rbp), %rax
	movq	%rax, %rdi
	call	_Znwm@PLT
	.loc 16 171 62
	jmp	.L417
.L416:
	.loc 16 173 40
	movq	-16(%rbp), %rcx
